ARM GAS  C:\Users\86184\AppData\Local\Temp\ccj7Sph7.s 			page 1


   1              		.cpu cortex-m3
   2              		.arch armv7-m
   3              		.fpu softvfp
   4              		.eabi_attribute 20, 1
   5              		.eabi_attribute 21, 1
   6              		.eabi_attribute 23, 3
   7              		.eabi_attribute 24, 1
   8              		.eabi_attribute 25, 1
   9              		.eabi_attribute 26, 1
  10              		.eabi_attribute 30, 2
  11              		.eabi_attribute 34, 1
  12              		.eabi_attribute 18, 4
  13              		.file	"btim.c"
  14              		.text
  15              	.Ltext0:
  16              		.cfi_sections	.debug_frame
  17              		.file 1 "Drivers/BSP/TIMER/btim.c"
  18              		.section	.text.btim_timx_int_init,"ax",%progbits
  19              		.align	1
  20              		.p2align 2,,3
  21              		.global	btim_timx_int_init
  22              		.syntax unified
  23              		.thumb
  24              		.thumb_func
  26              	btim_timx_int_init:
  27              	.LVL0:
  28              	.LFB68:
   1:Drivers/BSP/TIMER/btim.c **** /**
   2:Drivers/BSP/TIMER/btim.c ****  **************************************************************************************************
   3:Drivers/BSP/TIMER/btim.c ****  * @file        btim.c
   4:Drivers/BSP/TIMER/btim.c ****  * @author      正点原子团队(ALIENTEK)
   5:Drivers/BSP/TIMER/btim.c ****  * @version     V1.0
   6:Drivers/BSP/TIMER/btim.c ****  * @date        2020-04-20
   7:Drivers/BSP/TIMER/btim.c ****  * @brief       基本定时器 驱动代码
   8:Drivers/BSP/TIMER/btim.c ****  * @license     Copyright (c) 2020-2032, 广州市星翼电子科技有限公司
   9:Drivers/BSP/TIMER/btim.c ****  **************************************************************************************************
  10:Drivers/BSP/TIMER/btim.c ****  * @attention
  11:Drivers/BSP/TIMER/btim.c ****  *
  12:Drivers/BSP/TIMER/btim.c ****  * 实验平台:正点原子 STM32F103开发板
  13:Drivers/BSP/TIMER/btim.c ****  * 在线视频:www.yuanzige.com
  14:Drivers/BSP/TIMER/btim.c ****  * 技术论坛:www.openedv.com
  15:Drivers/BSP/TIMER/btim.c ****  * 公司网址:www.alientek.com
  16:Drivers/BSP/TIMER/btim.c ****  * 购买地址:openedv.taobao.com
  17:Drivers/BSP/TIMER/btim.c ****  *
  18:Drivers/BSP/TIMER/btim.c ****  * 修改说明
  19:Drivers/BSP/TIMER/btim.c ****  * V1.0 20211216
  20:Drivers/BSP/TIMER/btim.c ****  * 第一次发布
  21:Drivers/BSP/TIMER/btim.c ****  *
  22:Drivers/BSP/TIMER/btim.c ****  **************************************************************************************************
  23:Drivers/BSP/TIMER/btim.c ****  */
  24:Drivers/BSP/TIMER/btim.c **** 
  25:Drivers/BSP/TIMER/btim.c **** #include "./BSP/LED/led.h"
  26:Drivers/BSP/TIMER/btim.c **** #include "./BSP/TIMER/btim.h"
  27:Drivers/BSP/TIMER/btim.c **** #include "./SYSTEM/usart/usart.h"
  28:Drivers/BSP/TIMER/btim.c **** 
  29:Drivers/BSP/TIMER/btim.c **** 
  30:Drivers/BSP/TIMER/btim.c **** TIM_HandleTypeDef g_timx_handle;  /* 定时器句柄 */
ARM GAS  C:\Users\86184\AppData\Local\Temp\ccj7Sph7.s 			page 2


  31:Drivers/BSP/TIMER/btim.c **** 
  32:Drivers/BSP/TIMER/btim.c **** /**
  33:Drivers/BSP/TIMER/btim.c ****  * @brief       基本定时器TIMX定时中断初始化函数
  34:Drivers/BSP/TIMER/btim.c ****  * @note
  35:Drivers/BSP/TIMER/btim.c ****  *              基本定时器的时钟来自APB1,当PPRE1 ≥ 2分频的时候
  36:Drivers/BSP/TIMER/btim.c ****  *              基本定时器的时钟为APB1时钟的2倍, 而APB1为36M, 所以定时器时钟 
  37:Drivers/BSP/TIMER/btim.c ****  *              定时器溢出时间计算方法: Tout = ((arr + 1) * (psc + 1)) / Ft us.
  38:Drivers/BSP/TIMER/btim.c ****  *              Ft=定时器工作频率,单位:Mhz
  39:Drivers/BSP/TIMER/btim.c ****  *
  40:Drivers/BSP/TIMER/btim.c ****  * @param       arr: 自动重装值。
  41:Drivers/BSP/TIMER/btim.c ****  * @param       psc: 时钟预分频数
  42:Drivers/BSP/TIMER/btim.c ****  * @retval      无
  43:Drivers/BSP/TIMER/btim.c ****  */
  44:Drivers/BSP/TIMER/btim.c **** void btim_timx_int_init(uint16_t arr, uint16_t psc)
  45:Drivers/BSP/TIMER/btim.c **** {
  29              		.loc 1 45 1 view -0
  30              		.cfi_startproc
  31              		@ args = 0, pretend = 0, frame = 0
  32              		@ frame_needed = 0, uses_anonymous_args = 0
  46:Drivers/BSP/TIMER/btim.c ****     g_timx_handle.Instance = BTIM_TIMX_INT;                      /* 通用定时器X */
  33              		.loc 1 46 5 view .LVU1
  45:Drivers/BSP/TIMER/btim.c ****     g_timx_handle.Instance = BTIM_TIMX_INT;                      /* 通用定时器X */
  34              		.loc 1 45 1 is_stmt 0 view .LVU2
  35 0000 0246     		mov	r2, r0
  47:Drivers/BSP/TIMER/btim.c ****     g_timx_handle.Init.Prescaler = psc;                          /* 设置预分频系数 */
  48:Drivers/BSP/TIMER/btim.c ****     g_timx_handle.Init.CounterMode = TIM_COUNTERMODE_UP;         /* 递增计数模式 */
  36              		.loc 1 48 36 view .LVU3
  37 0002 0023     		movs	r3, #0
  45:Drivers/BSP/TIMER/btim.c ****     g_timx_handle.Instance = BTIM_TIMX_INT;                      /* 通用定时器X */
  38              		.loc 1 45 1 view .LVU4
  39 0004 10B5     		push	{r4, lr}
  40              	.LCFI0:
  41              		.cfi_def_cfa_offset 8
  42              		.cfi_offset 4, -8
  43              		.cfi_offset 14, -4
  46:Drivers/BSP/TIMER/btim.c ****     g_timx_handle.Init.Prescaler = psc;                          /* 设置预分频系数 */
  44              		.loc 1 46 28 view .LVU5
  45 0006 0748     		ldr	r0, .L4
  46              	.LVL1:
  46:Drivers/BSP/TIMER/btim.c ****     g_timx_handle.Init.Prescaler = psc;                          /* 设置预分频系数 */
  47              		.loc 1 46 28 view .LVU6
  48 0008 074C     		ldr	r4, .L4+4
  49 000a 2060     		str	r0, [r4]
  47:Drivers/BSP/TIMER/btim.c ****     g_timx_handle.Init.Prescaler = psc;                          /* 设置预分频系数 */
  50              		.loc 1 47 5 is_stmt 1 view .LVU7
  49:Drivers/BSP/TIMER/btim.c ****     g_timx_handle.Init.Period = arr;                             /* 自动装载值 */
  50:Drivers/BSP/TIMER/btim.c ****     HAL_TIM_Base_Init(&g_timx_handle);
  51              		.loc 1 50 5 is_stmt 0 view .LVU8
  52 000c 2046     		mov	r0, r4
  48:Drivers/BSP/TIMER/btim.c ****     g_timx_handle.Init.Period = arr;                             /* 自动装载值 */
  53              		.loc 1 48 36 view .LVU9
  54 000e C4E90113 		strd	r1, r3, [r4, #4]
  49:Drivers/BSP/TIMER/btim.c ****     g_timx_handle.Init.Period = arr;                             /* 自动装载值 */
  55              		.loc 1 49 5 is_stmt 1 view .LVU10
  56              		.loc 1 50 5 view .LVU11
  49:Drivers/BSP/TIMER/btim.c ****     g_timx_handle.Init.Period = arr;                             /* 自动装载值 */
  57              		.loc 1 49 31 is_stmt 0 view .LVU12
ARM GAS  C:\Users\86184\AppData\Local\Temp\ccj7Sph7.s 			page 3


  58 0012 E260     		str	r2, [r4, #12]
  59              		.loc 1 50 5 view .LVU13
  60 0014 FFF7FEFF 		bl	HAL_TIM_Base_Init
  61              	.LVL2:
  51:Drivers/BSP/TIMER/btim.c **** 
  52:Drivers/BSP/TIMER/btim.c ****     HAL_TIM_Base_Start_IT(&g_timx_handle);    /* 使能定时器x及其更新中断 */
  62              		.loc 1 52 5 is_stmt 1 view .LVU14
  63 0018 2046     		mov	r0, r4
  53:Drivers/BSP/TIMER/btim.c **** }
  64              		.loc 1 53 1 is_stmt 0 view .LVU15
  65 001a BDE81040 		pop	{r4, lr}
  66              	.LCFI1:
  67              		.cfi_restore 14
  68              		.cfi_restore 4
  69              		.cfi_def_cfa_offset 0
  52:Drivers/BSP/TIMER/btim.c **** }
  70              		.loc 1 52 5 view .LVU16
  71 001e FFF7FEBF 		b	HAL_TIM_Base_Start_IT
  72              	.LVL3:
  73              	.L5:
  74 0022 00BF     		.align	2
  75              	.L4:
  76 0024 00100040 		.word	1073745920
  77 0028 00000000 		.word	g_timx_handle
  78              		.cfi_endproc
  79              	.LFE68:
  81              		.section	.text.HAL_TIM_Base_MspInit,"ax",%progbits
  82              		.align	1
  83              		.p2align 2,,3
  84              		.global	HAL_TIM_Base_MspInit
  85              		.syntax unified
  86              		.thumb
  87              		.thumb_func
  89              	HAL_TIM_Base_MspInit:
  90              	.LVL4:
  91              	.LFB69:
  54:Drivers/BSP/TIMER/btim.c **** 
  55:Drivers/BSP/TIMER/btim.c **** /**
  56:Drivers/BSP/TIMER/btim.c ****  * @brief       定时器底层驱动，开启时钟，设置中断优先级
  57:Drivers/BSP/TIMER/btim.c ****                 此函数会被HAL_TIM_Base_Init()函数调用
  58:Drivers/BSP/TIMER/btim.c ****  * @param       htim:定时器句柄
  59:Drivers/BSP/TIMER/btim.c ****  * @retval      无
  60:Drivers/BSP/TIMER/btim.c ****  */
  61:Drivers/BSP/TIMER/btim.c **** void HAL_TIM_Base_MspInit(TIM_HandleTypeDef *htim)
  62:Drivers/BSP/TIMER/btim.c **** {
  92              		.loc 1 62 1 is_stmt 1 view -0
  93              		.cfi_startproc
  94              		@ args = 0, pretend = 0, frame = 8
  95              		@ frame_needed = 0, uses_anonymous_args = 0
  63:Drivers/BSP/TIMER/btim.c ****     if (htim->Instance == BTIM_TIMX_INT)
  96              		.loc 1 63 5 view .LVU18
  97              		.loc 1 63 8 is_stmt 0 view .LVU19
  98 0000 0E4B     		ldr	r3, .L12
  99 0002 0268     		ldr	r2, [r0]
 100 0004 9A42     		cmp	r2, r3
 101 0006 00D0     		beq	.L11
 102 0008 7047     		bx	lr
ARM GAS  C:\Users\86184\AppData\Local\Temp\ccj7Sph7.s 			page 4


 103              	.L11:
  64:Drivers/BSP/TIMER/btim.c ****     {
  65:Drivers/BSP/TIMER/btim.c ****         BTIM_TIMX_INT_CLK_ENABLE();                     /* 使能TIM时钟 */
 104              		.loc 1 65 9 is_stmt 1 view .LVU20
 105              		.loc 1 65 9 view .LVU21
 106              	.LBB2:
 107              		.loc 1 65 9 view .LVU22
 108              		.loc 1 65 9 view .LVU23
 109 000a 03F50033 		add	r3, r3, #131072
 110 000e D969     		ldr	r1, [r3, #28]
 111              	.LBE2:
  62:Drivers/BSP/TIMER/btim.c ****     if (htim->Instance == BTIM_TIMX_INT)
 112              		.loc 1 62 1 is_stmt 0 view .LVU24
 113 0010 00B5     		push	{lr}
 114              	.LCFI2:
 115              		.cfi_def_cfa_offset 4
 116              		.cfi_offset 14, -4
 117              	.LBB3:
 118              		.loc 1 65 9 view .LVU25
 119 0012 41F01001 		orr	r1, r1, #16
 120 0016 D961     		str	r1, [r3, #28]
 121              		.loc 1 65 9 is_stmt 1 view .LVU26
 122 0018 DB69     		ldr	r3, [r3, #28]
 123              	.LBE3:
  62:Drivers/BSP/TIMER/btim.c ****     if (htim->Instance == BTIM_TIMX_INT)
 124              		.loc 1 62 1 is_stmt 0 view .LVU27
 125 001a 83B0     		sub	sp, sp, #12
 126              	.LCFI3:
 127              		.cfi_def_cfa_offset 16
 128              	.LBB4:
 129              		.loc 1 65 9 view .LVU28
 130 001c 03F01003 		and	r3, r3, #16
 131 0020 0193     		str	r3, [sp, #4]
 132              		.loc 1 65 9 is_stmt 1 view .LVU29
 133              	.LBE4:
  66:Drivers/BSP/TIMER/btim.c ****         HAL_NVIC_SetPriority(BTIM_TIMX_INT_IRQn, 1, 3); /* 抢占1，子优先级3，组2 */
 134              		.loc 1 66 9 is_stmt 0 view .LVU30
 135 0022 3620     		movs	r0, #54
 136              	.LVL5:
 137              		.loc 1 66 9 view .LVU31
 138 0024 0322     		movs	r2, #3
 139 0026 0121     		movs	r1, #1
 140              	.LBB5:
  65:Drivers/BSP/TIMER/btim.c ****         HAL_NVIC_SetPriority(BTIM_TIMX_INT_IRQn, 1, 3); /* 抢占1，子优先级3，组2 */
 141              		.loc 1 65 9 view .LVU32
 142 0028 019B     		ldr	r3, [sp, #4]
 143              	.LBE5:
  65:Drivers/BSP/TIMER/btim.c ****         HAL_NVIC_SetPriority(BTIM_TIMX_INT_IRQn, 1, 3); /* 抢占1，子优先级3，组2 */
 144              		.loc 1 65 9 is_stmt 1 view .LVU33
  65:Drivers/BSP/TIMER/btim.c ****         HAL_NVIC_SetPriority(BTIM_TIMX_INT_IRQn, 1, 3); /* 抢占1，子优先级3，组2 */
 145              		.loc 1 65 9 view .LVU34
 146              		.loc 1 66 9 view .LVU35
 147 002a FFF7FEFF 		bl	HAL_NVIC_SetPriority
 148              	.LVL6:
  67:Drivers/BSP/TIMER/btim.c ****         HAL_NVIC_EnableIRQ(BTIM_TIMX_INT_IRQn);         /* 开启ITM3中断 */
 149              		.loc 1 67 9 view .LVU36
 150 002e 3620     		movs	r0, #54
ARM GAS  C:\Users\86184\AppData\Local\Temp\ccj7Sph7.s 			page 5


  68:Drivers/BSP/TIMER/btim.c ****     }
  69:Drivers/BSP/TIMER/btim.c **** }
 151              		.loc 1 69 1 is_stmt 0 view .LVU37
 152 0030 03B0     		add	sp, sp, #12
 153              	.LCFI4:
 154              		.cfi_def_cfa_offset 4
 155              		@ sp needed
 156 0032 5DF804EB 		ldr	lr, [sp], #4
 157              	.LCFI5:
 158              		.cfi_restore 14
 159              		.cfi_def_cfa_offset 0
  67:Drivers/BSP/TIMER/btim.c ****         HAL_NVIC_EnableIRQ(BTIM_TIMX_INT_IRQn);         /* 开启ITM3中断 */
 160              		.loc 1 67 9 view .LVU38
 161 0036 FFF7FEBF 		b	HAL_NVIC_EnableIRQ
 162              	.LVL7:
 163              	.L13:
 164 003a 00BF     		.align	2
 165              	.L12:
 166 003c 00100040 		.word	1073745920
 167              		.cfi_endproc
 168              	.LFE69:
 170              		.section	.text.TIM6_IRQHandler,"ax",%progbits
 171              		.align	1
 172              		.p2align 2,,3
 173              		.global	TIM6_IRQHandler
 174              		.syntax unified
 175              		.thumb
 176              		.thumb_func
 178              	TIM6_IRQHandler:
 179              	.LFB70:
  70:Drivers/BSP/TIMER/btim.c **** 
  71:Drivers/BSP/TIMER/btim.c **** /**
  72:Drivers/BSP/TIMER/btim.c ****  * @brief       定时器TIMX中断服务函数
  73:Drivers/BSP/TIMER/btim.c ****  * @param       无
  74:Drivers/BSP/TIMER/btim.c ****  * @retval      无
  75:Drivers/BSP/TIMER/btim.c ****  */
  76:Drivers/BSP/TIMER/btim.c **** void BTIM_TIMX_INT_IRQHandler(void)
  77:Drivers/BSP/TIMER/btim.c **** {
 180              		.loc 1 77 1 is_stmt 1 view -0
 181              		.cfi_startproc
 182              		@ args = 0, pretend = 0, frame = 0
 183              		@ frame_needed = 0, uses_anonymous_args = 0
  78:Drivers/BSP/TIMER/btim.c ****     HAL_TIM_IRQHandler(&g_timx_handle); /* 定时器中断公共处理函数 */
 184              		.loc 1 78 5 view .LVU40
  77:Drivers/BSP/TIMER/btim.c ****     HAL_TIM_IRQHandler(&g_timx_handle); /* 定时器中断公共处理函数 */
 185              		.loc 1 77 1 is_stmt 0 view .LVU41
 186 0000 10B5     		push	{r4, lr}
 187              	.LCFI6:
 188              		.cfi_def_cfa_offset 8
 189              		.cfi_offset 4, -8
 190              		.cfi_offset 14, -4
 191              		.loc 1 78 5 view .LVU42
 192 0002 044C     		ldr	r4, .L16
 193 0004 2046     		mov	r0, r4
 194 0006 FFF7FEFF 		bl	HAL_TIM_IRQHandler
 195              	.LVL8:
  79:Drivers/BSP/TIMER/btim.c ****     __HAL_TIM_CLEAR_IT(&g_timx_handle, TIM_IT_UPDATE);
ARM GAS  C:\Users\86184\AppData\Local\Temp\ccj7Sph7.s 			page 6


 196              		.loc 1 79 5 is_stmt 1 view .LVU43
 197 000a 6FF00102 		mvn	r2, #1
 198 000e 2368     		ldr	r3, [r4]
 199 0010 1A61     		str	r2, [r3, #16]
  80:Drivers/BSP/TIMER/btim.c **** }
 200              		.loc 1 80 1 is_stmt 0 view .LVU44
 201 0012 10BD     		pop	{r4, pc}
 202              	.L17:
 203              		.align	2
 204              	.L16:
 205 0014 00000000 		.word	g_timx_handle
 206              		.cfi_endproc
 207              	.LFE70:
 209              		.section	.text.HAL_TIM_PeriodElapsedCallback,"ax",%progbits
 210              		.align	1
 211              		.p2align 2,,3
 212              		.global	HAL_TIM_PeriodElapsedCallback
 213              		.syntax unified
 214              		.thumb
 215              		.thumb_func
 217              	HAL_TIM_PeriodElapsedCallback:
 218              	.LVL9:
 219              	.LFB71:
  81:Drivers/BSP/TIMER/btim.c **** 
  82:Drivers/BSP/TIMER/btim.c **** /**
  83:Drivers/BSP/TIMER/btim.c ****  * @brief       定时器更新中断回调函数
  84:Drivers/BSP/TIMER/btim.c ****  * @param       htim:定时器句柄
  85:Drivers/BSP/TIMER/btim.c ****  * @retval      无
  86:Drivers/BSP/TIMER/btim.c ****  */
  87:Drivers/BSP/TIMER/btim.c **** void HAL_TIM_PeriodElapsedCallback(TIM_HandleTypeDef *htim)
  88:Drivers/BSP/TIMER/btim.c **** {
 220              		.loc 1 88 1 is_stmt 1 view -0
 221              		.cfi_startproc
 222              		@ args = 0, pretend = 0, frame = 0
 223              		@ frame_needed = 0, uses_anonymous_args = 0
 224              		@ link register save eliminated.
  89:Drivers/BSP/TIMER/btim.c ****     if (htim->Instance == BTIM_TIMX_INT)
 225              		.loc 1 89 5 view .LVU46
 226              		.loc 1 89 8 is_stmt 0 view .LVU47
 227 0000 044B     		ldr	r3, .L21
 228 0002 0268     		ldr	r2, [r0]
 229 0004 9A42     		cmp	r2, r3
 230 0006 00D0     		beq	.L20
  90:Drivers/BSP/TIMER/btim.c ****     {
  91:Drivers/BSP/TIMER/btim.c ****         LED1_TOGGLE(); /* LED1反转 */
  92:Drivers/BSP/TIMER/btim.c ****     }
  93:Drivers/BSP/TIMER/btim.c **** }
 231              		.loc 1 93 1 view .LVU48
 232 0008 7047     		bx	lr
 233              	.L20:
  91:Drivers/BSP/TIMER/btim.c ****     }
 234              		.loc 1 91 9 is_stmt 1 view .LVU49
  91:Drivers/BSP/TIMER/btim.c ****     }
 235              		.loc 1 91 9 view .LVU50
 236 000a 2021     		movs	r1, #32
 237 000c 0248     		ldr	r0, .L21+4
 238              	.LVL10:
ARM GAS  C:\Users\86184\AppData\Local\Temp\ccj7Sph7.s 			page 7


  91:Drivers/BSP/TIMER/btim.c ****     }
 239              		.loc 1 91 9 is_stmt 0 view .LVU51
 240 000e FFF7FEBF 		b	HAL_GPIO_TogglePin
 241              	.LVL11:
 242              	.L22:
 243 0012 00BF     		.align	2
 244              	.L21:
 245 0014 00100040 		.word	1073745920
 246 0018 00180140 		.word	1073813504
 247              		.cfi_endproc
 248              	.LFE71:
 250              		.global	g_timx_handle
 251              		.section	.bss.g_timx_handle,"aw",%nobits
 252              		.align	2
 255              	g_timx_handle:
 256 0000 00000000 		.space	72
 256      00000000 
 256      00000000 
 256      00000000 
 256      00000000 
 257              		.text
 258              	.Letext0:
 259              		.file 2 "Drivers/CMSIS/Device/ST/STM32F1xx/Include/stm32f103xe.h"
 260              		.file 3 "d:\\appdev\\vsarm\\armcc\\arm-none-eabi\\include\\machine\\_default_types.h"
 261              		.file 4 "d:\\appdev\\vsarm\\armcc\\arm-none-eabi\\include\\sys\\_stdint.h"
 262              		.file 5 "Drivers/STM32F1xx_HAL_Driver/Inc/stm32f1xx_hal_def.h"
 263              		.file 6 "Drivers/STM32F1xx_HAL_Driver/Inc/stm32f1xx_hal_dma.h"
 264              		.file 7 "Drivers/STM32F1xx_HAL_Driver/Inc/stm32f1xx_hal_tim.h"
 265              		.file 8 "Drivers/STM32F1xx_HAL_Driver/Inc/stm32f1xx_hal_gpio.h"
 266              		.file 9 "Drivers/STM32F1xx_HAL_Driver/Inc/stm32f1xx_hal_cortex.h"
ARM GAS  C:\Users\86184\AppData\Local\Temp\ccj7Sph7.s 			page 8

