ARM GAS  C:\Users\86184\AppData\Local\Temp\ccddLE3z.s 			page 1


   1              		.cpu cortex-m3
   2              		.arch armv7-m
   3              		.fpu softvfp
   4              		.eabi_attribute 20, 1
   5              		.eabi_attribute 21, 1
   6              		.eabi_attribute 23, 3
   7              		.eabi_attribute 24, 1
   8              		.eabi_attribute 25, 1
   9              		.eabi_attribute 26, 1
  10              		.eabi_attribute 30, 2
  11              		.eabi_attribute 34, 1
  12              		.eabi_attribute 18, 4
  13              		.file	"ex8.c"
  14              		.text
  15              	.Ltext0:
  16              		.cfi_sections	.debug_frame
  17              		.file 1 "Src/ex8.c"
  18              		.section	.rodata.run.str1.4,"aMS",%progbits,1
  19              		.align	2
  20              	.LC0:
  21 0000 73737373 		.ascii	"sssss\015\000"
  21      730D00
  22              		.section	.text.run,"ax",%progbits
  23              		.align	1
  24              		.p2align 2,,3
  25              		.global	run
  26              		.syntax unified
  27              		.thumb
  28              		.thumb_func
  30              	run:
  31              	.LFB68:
   1:Src/ex8.c     **** #include "ex8.h"
   2:Src/ex8.c     **** 
   3:Src/ex8.c     **** /* 实验8 基本定时器中断实验 */
   4:Src/ex8.c     **** void run()
   5:Src/ex8.c     **** {
  32              		.loc 1 5 1 view -0
  33              		.cfi_startproc
  34              		@ Volatile: function does not return.
  35              		@ args = 0, pretend = 0, frame = 0
  36              		@ frame_needed = 0, uses_anonymous_args = 0
   6:Src/ex8.c     ****     led_init();
  37              		.loc 1 6 5 view .LVU1
   5:Src/ex8.c     ****     led_init();
  38              		.loc 1 5 1 is_stmt 0 view .LVU2
  39 0000 08B5     		push	{r3, lr}
  40              	.LCFI0:
  41              		.cfi_def_cfa_offset 8
  42              		.cfi_offset 3, -8
  43              		.cfi_offset 14, -4
  44              		.loc 1 6 5 view .LVU3
  45 0002 FFF7FEFF 		bl	led_init
  46              	.LVL0:
   7:Src/ex8.c     ****     usart_init(115200);
  47              		.loc 1 7 5 is_stmt 1 view .LVU4
  48 0006 4FF4E130 		mov	r0, #115200
  49 000a FFF7FEFF 		bl	usart_init
ARM GAS  C:\Users\86184\AppData\Local\Temp\ccddLE3z.s 			page 2


  50              	.LVL1:
   8:Src/ex8.c     ****     printf("sssss\r\n");
  51              		.loc 1 8 5 view .LVU5
  52 000e 0948     		ldr	r0, .L5
  53 0010 FFF7FEFF 		bl	puts
  54              	.LVL2:
   9:Src/ex8.c     ****     btim_timx_int_init(5000-1, 7200-1);
  55              		.loc 1 9 5 view .LVU6
  56 0014 41F61F41 		movw	r1, #7199
  57 0018 41F28730 		movw	r0, #4999
  58 001c FFF7FEFF 		bl	btim_timx_int_init
  59              	.LVL3:
  10:Src/ex8.c     ****     while(1) {
  11:Src/ex8.c     ****         LED0_TOGGLE();
  60              		.loc 1 11 9 is_stmt 0 view .LVU7
  61 0020 054C     		ldr	r4, .L5+4
  62              	.L2:
  10:Src/ex8.c     ****     while(1) {
  63              		.loc 1 10 5 is_stmt 1 discriminator 1 view .LVU8
  64              		.loc 1 11 9 discriminator 1 view .LVU9
  65              		.loc 1 11 9 discriminator 1 view .LVU10
  66 0022 2046     		mov	r0, r4
  67 0024 2021     		movs	r1, #32
  68 0026 FFF7FEFF 		bl	HAL_GPIO_TogglePin
  69              	.LVL4:
  70              		.loc 1 11 9 discriminator 1 view .LVU11
  12:Src/ex8.c     ****         delay_ms(200);
  71              		.loc 1 12 9 discriminator 1 view .LVU12
  72 002a C820     		movs	r0, #200
  73 002c FFF7FEFF 		bl	delay_ms
  74              	.LVL5:
  10:Src/ex8.c     ****     while(1) {
  75              		.loc 1 10 10 discriminator 1 view .LVU13
  76 0030 F7E7     		b	.L2
  77              	.L6:
  78 0032 00BF     		.align	2
  79              	.L5:
  80 0034 00000000 		.word	.LC0
  81 0038 000C0140 		.word	1073810432
  82              		.cfi_endproc
  83              	.LFE68:
  85              		.text
  86              	.Letext0:
  87              		.file 2 "d:\\appdev\\vsarm\\armcc\\arm-none-eabi\\include\\machine\\_default_types.h"
  88              		.file 3 "d:\\appdev\\vsarm\\armcc\\arm-none-eabi\\include\\sys\\_stdint.h"
  89              		.file 4 "Drivers/CMSIS/Device/ST/STM32F1xx/Include/stm32f103xe.h"
  90              		.file 5 "Drivers/./SYSTEM/delay/delay.h"
  91              		.file 6 "Drivers/STM32F1xx_HAL_Driver/Inc/stm32f1xx_hal_gpio.h"
  92              		.file 7 "Drivers/./BSP/TIMER/btim.h"
  93              		.file 8 "Drivers/./SYSTEM/usart/usart.h"
  94              		.file 9 "Drivers/./BSP/LED/led.h"
  95              		.file 10 "<built-in>"
ARM GAS  C:\Users\86184\AppData\Local\Temp\ccddLE3z.s 			page 3


DEFINED SYMBOLS
                            *ABS*:00000000 ex8.c
C:\Users\86184\AppData\Local\Temp\ccddLE3z.s:19     .rodata.run.str1.4:00000000 $d
C:\Users\86184\AppData\Local\Temp\ccddLE3z.s:23     .text.run:00000000 $t
C:\Users\86184\AppData\Local\Temp\ccddLE3z.s:30     .text.run:00000000 run
C:\Users\86184\AppData\Local\Temp\ccddLE3z.s:80     .text.run:00000034 $d

UNDEFINED SYMBOLS
led_init
usart_init
puts
btim_timx_int_init
HAL_GPIO_TogglePin
delay_ms
