ARM GAS  C:\Users\86184\AppData\Local\Temp\ccTOwkVr.s 			page 1


   1              		.cpu cortex-m3
   2              		.arch armv7-m
   3              		.fpu softvfp
   4              		.eabi_attribute 20, 1
   5              		.eabi_attribute 21, 1
   6              		.eabi_attribute 23, 3
   7              		.eabi_attribute 24, 1
   8              		.eabi_attribute 25, 1
   9              		.eabi_attribute 26, 1
  10              		.eabi_attribute 30, 2
  11              		.eabi_attribute 34, 1
  12              		.eabi_attribute 18, 4
  13              		.file	"led.c"
  14              		.text
  15              	.Ltext0:
  16              		.cfi_sections	.debug_frame
  17              		.file 1 "Drivers/BSP/LED/led.c"
  18              		.section	.text.led_init,"ax",%progbits
  19              		.align	1
  20              		.p2align 2,,3
  21              		.global	led_init
  22              		.syntax unified
  23              		.thumb
  24              		.thumb_func
  26              	led_init:
  27              	.LFB65:
   1:Drivers/BSP/LED/led.c **** #include "./BSP/LED/led.h"
   2:Drivers/BSP/LED/led.c **** 
   3:Drivers/BSP/LED/led.c **** void led_init(void)
   4:Drivers/BSP/LED/led.c **** {
  28              		.loc 1 4 1 view -0
  29              		.cfi_startproc
  30              		@ args = 0, pretend = 0, frame = 24
  31              		@ frame_needed = 0, uses_anonymous_args = 0
   5:Drivers/BSP/LED/led.c **** 
   6:Drivers/BSP/LED/led.c ****     GPIO_InitTypeDef gpio_init_struct; /* GPIO初始化参数结构体 */
  32              		.loc 1 6 5 view .LVU1
   7:Drivers/BSP/LED/led.c **** 
   8:Drivers/BSP/LED/led.c ****     LED0_GPIO_CLK_ENABLE(); /* 使能LED0时钟 */
  33              		.loc 1 8 5 view .LVU2
  34              		.loc 1 8 5 view .LVU3
  35              	.LBB2:
  36              		.loc 1 8 5 view .LVU4
  37              		.loc 1 8 5 view .LVU5
  38              	.LBE2:
   4:Drivers/BSP/LED/led.c **** 
  39              		.loc 1 4 1 is_stmt 0 view .LVU6
  40 0000 D0B5     		push	{r4, r6, r7, lr}
  41              	.LCFI0:
  42              		.cfi_def_cfa_offset 16
  43              		.cfi_offset 4, -16
  44              		.cfi_offset 6, -12
  45              		.cfi_offset 7, -8
  46              		.cfi_offset 14, -4
   9:Drivers/BSP/LED/led.c ****     LED1_GPIO_CLK_ENABLE(); /* 使能LED1时钟*/
  10:Drivers/BSP/LED/led.c **** 
  11:Drivers/BSP/LED/led.c ****     gpio_init_struct.Mode = GPIO_MODE_OUTPUT_PP; /* 推挽输出模式 */
ARM GAS  C:\Users\86184\AppData\Local\Temp\ccTOwkVr.s 			page 2


  12:Drivers/BSP/LED/led.c ****     gpio_init_struct.Pin = LED0_GPIO_PIN; /* LED0引脚 */
  47              		.loc 1 12 26 view .LVU7
  48 0002 2026     		movs	r6, #32
  49 0004 0127     		movs	r7, #1
  50 0006 0120     		movs	r0, #1
  51 0008 0321     		movs	r1, #3
  13:Drivers/BSP/LED/led.c ****     gpio_init_struct.Pull = GPIO_PULLUP; /* 上拉 */
  14:Drivers/BSP/LED/led.c ****     gpio_init_struct.Speed = GPIO_SPEED_FREQ_HIGH; /* 高速输出 */
  15:Drivers/BSP/LED/led.c ****     HAL_GPIO_Init(LED0_GPIO_PORT, &gpio_init_struct);
  16:Drivers/BSP/LED/led.c **** 
  17:Drivers/BSP/LED/led.c ****     gpio_init_struct.Pin = LED1_GPIO_PIN; /* LED1引脚 */
  52              		.loc 1 17 26 view .LVU8
  53 000a 2024     		movs	r4, #32
  54              	.LBB3:
   8:Drivers/BSP/LED/led.c ****     LED1_GPIO_CLK_ENABLE(); /* 使能LED1时钟*/
  55              		.loc 1 8 5 view .LVU9
  56 000c 174B     		ldr	r3, .L4
  57              	.LBE3:
   4:Drivers/BSP/LED/led.c **** 
  58              		.loc 1 4 1 view .LVU10
  59 000e 86B0     		sub	sp, sp, #24
  60              	.LCFI1:
  61              		.cfi_def_cfa_offset 40
  62              	.LBB4:
   8:Drivers/BSP/LED/led.c ****     LED1_GPIO_CLK_ENABLE(); /* 使能LED1时钟*/
  63              		.loc 1 8 5 view .LVU11
  64 0010 9A69     		ldr	r2, [r3, #24]
  65 0012 42F00802 		orr	r2, r2, #8
  66 0016 9A61     		str	r2, [r3, #24]
   8:Drivers/BSP/LED/led.c ****     LED1_GPIO_CLK_ENABLE(); /* 使能LED1时钟*/
  67              		.loc 1 8 5 is_stmt 1 view .LVU12
  68 0018 9A69     		ldr	r2, [r3, #24]
  69 001a 02F00802 		and	r2, r2, #8
  70 001e 0092     		str	r2, [sp]
   8:Drivers/BSP/LED/led.c ****     LED1_GPIO_CLK_ENABLE(); /* 使能LED1时钟*/
  71              		.loc 1 8 5 view .LVU13
  72 0020 009A     		ldr	r2, [sp]
  73              	.LBE4:
   8:Drivers/BSP/LED/led.c ****     LED1_GPIO_CLK_ENABLE(); /* 使能LED1时钟*/
  74              		.loc 1 8 5 view .LVU14
   8:Drivers/BSP/LED/led.c ****     LED1_GPIO_CLK_ENABLE(); /* 使能LED1时钟*/
  75              		.loc 1 8 5 view .LVU15
   9:Drivers/BSP/LED/led.c **** 
  76              		.loc 1 9 5 view .LVU16
   9:Drivers/BSP/LED/led.c **** 
  77              		.loc 1 9 5 view .LVU17
  78              	.LBB5:
   9:Drivers/BSP/LED/led.c **** 
  79              		.loc 1 9 5 view .LVU18
   9:Drivers/BSP/LED/led.c **** 
  80              		.loc 1 9 5 view .LVU19
  81 0022 9A69     		ldr	r2, [r3, #24]
  82 0024 42F04002 		orr	r2, r2, #64
  83 0028 9A61     		str	r2, [r3, #24]
   9:Drivers/BSP/LED/led.c **** 
  84              		.loc 1 9 5 view .LVU20
  85 002a 9B69     		ldr	r3, [r3, #24]
ARM GAS  C:\Users\86184\AppData\Local\Temp\ccTOwkVr.s 			page 3


  86              	.LBE5:
  12:Drivers/BSP/LED/led.c ****     gpio_init_struct.Pull = GPIO_PULLUP; /* 上拉 */
  87              		.loc 1 12 26 is_stmt 0 view .LVU21
  88 002c CDE90267 		strd	r6, [sp, #8]
  15:Drivers/BSP/LED/led.c **** 
  89              		.loc 1 15 5 view .LVU22
  90 0030 0F4F     		ldr	r7, .L4+4
  18:Drivers/BSP/LED/led.c ****     HAL_GPIO_Init(LED1_GPIO_PORT, &gpio_init_struct);
  91              		.loc 1 18 5 view .LVU23
  92 0032 104E     		ldr	r6, .L4+8
  93              	.LBB6:
   9:Drivers/BSP/LED/led.c **** 
  94              		.loc 1 9 5 view .LVU24
  95 0034 03F04003 		and	r3, r3, #64
  96              	.LBE6:
  12:Drivers/BSP/LED/led.c ****     gpio_init_struct.Pull = GPIO_PULLUP; /* 上拉 */
  97              		.loc 1 12 26 view .LVU25
  98 0038 CDE90401 		strd	r0, [sp, #16]
  99              	.LBB7:
   9:Drivers/BSP/LED/led.c **** 
 100              		.loc 1 9 5 view .LVU26
 101 003c 0193     		str	r3, [sp, #4]
   9:Drivers/BSP/LED/led.c **** 
 102              		.loc 1 9 5 is_stmt 1 view .LVU27
 103              	.LBE7:
  15:Drivers/BSP/LED/led.c **** 
 104              		.loc 1 15 5 is_stmt 0 view .LVU28
 105 003e 3846     		mov	r0, r7
 106 0040 02A9     		add	r1, sp, #8
 107              	.LBB8:
   9:Drivers/BSP/LED/led.c **** 
 108              		.loc 1 9 5 view .LVU29
 109 0042 019B     		ldr	r3, [sp, #4]
 110              	.LBE8:
   9:Drivers/BSP/LED/led.c **** 
 111              		.loc 1 9 5 is_stmt 1 view .LVU30
   9:Drivers/BSP/LED/led.c **** 
 112              		.loc 1 9 5 view .LVU31
  11:Drivers/BSP/LED/led.c ****     gpio_init_struct.Pin = LED0_GPIO_PIN; /* LED0引脚 */
 113              		.loc 1 11 5 view .LVU32
  12:Drivers/BSP/LED/led.c ****     gpio_init_struct.Pull = GPIO_PULLUP; /* 上拉 */
 114              		.loc 1 12 5 view .LVU33
  13:Drivers/BSP/LED/led.c ****     gpio_init_struct.Speed = GPIO_SPEED_FREQ_HIGH; /* 高速输出 */
 115              		.loc 1 13 5 view .LVU34
  14:Drivers/BSP/LED/led.c ****     HAL_GPIO_Init(LED0_GPIO_PORT, &gpio_init_struct);
 116              		.loc 1 14 5 view .LVU35
  15:Drivers/BSP/LED/led.c **** 
 117              		.loc 1 15 5 view .LVU36
 118 0044 FFF7FEFF 		bl	HAL_GPIO_Init
 119              	.LVL0:
  17:Drivers/BSP/LED/led.c ****     HAL_GPIO_Init(LED1_GPIO_PORT, &gpio_init_struct);
 120              		.loc 1 17 5 view .LVU37
 121              		.loc 1 18 5 is_stmt 0 view .LVU38
 122 0048 3046     		mov	r0, r6
 123 004a 02A9     		add	r1, sp, #8
  17:Drivers/BSP/LED/led.c ****     HAL_GPIO_Init(LED1_GPIO_PORT, &gpio_init_struct);
 124              		.loc 1 17 26 view .LVU39
ARM GAS  C:\Users\86184\AppData\Local\Temp\ccTOwkVr.s 			page 4


 125 004c 0294     		str	r4, [sp, #8]
 126              		.loc 1 18 5 is_stmt 1 view .LVU40
 127 004e FFF7FEFF 		bl	HAL_GPIO_Init
 128              	.LVL1:
  19:Drivers/BSP/LED/led.c **** 
  20:Drivers/BSP/LED/led.c ****     /* LED初始熄灭 */
  21:Drivers/BSP/LED/led.c ****     LED0(1);
 129              		.loc 1 21 5 view .LVU41
 130              		.loc 1 21 5 view .LVU42
 131 0052 2146     		mov	r1, r4
 132 0054 3846     		mov	r0, r7
 133 0056 0122     		movs	r2, #1
 134 0058 FFF7FEFF 		bl	HAL_GPIO_WritePin
 135              	.LVL2:
 136              		.loc 1 21 5 view .LVU43
  22:Drivers/BSP/LED/led.c ****     LED1(1);
 137              		.loc 1 22 5 view .LVU44
 138              		.loc 1 22 5 view .LVU45
 139 005c 0122     		movs	r2, #1
 140 005e 2146     		mov	r1, r4
 141 0060 3046     		mov	r0, r6
 142 0062 FFF7FEFF 		bl	HAL_GPIO_WritePin
 143              	.LVL3:
 144              		.loc 1 22 5 view .LVU46
  23:Drivers/BSP/LED/led.c **** }...
 145              		.loc 1 23 1 is_stmt 0 view .LVU47
 146 0066 06B0     		add	sp, sp, #24
 147              	.LCFI2:
 148              		.cfi_def_cfa_offset 16
 149              		@ sp needed
 150 0068 D0BD     		pop	{r4, r6, r7, pc}
 151              	.L5:
 152 006a 00BF     		.align	2
 153              	.L4:
 154 006c 00100240 		.word	1073876992
 155 0070 000C0140 		.word	1073810432
 156 0074 00180140 		.word	1073813504
 157              		.cfi_endproc
 158              	.LFE65:
 160              		.text
 161              	.Letext0:
 162              		.file 2 "d:\\appdev\\vsarm\\armcc\\arm-none-eabi\\include\\machine\\_default_types.h"
 163              		.file 3 "d:\\appdev\\vsarm\\armcc\\arm-none-eabi\\include\\sys\\_stdint.h"
 164              		.file 4 "Drivers/CMSIS/Device/ST/STM32F1xx/Include/stm32f103xe.h"
 165              		.file 5 "Drivers/STM32F1xx_HAL_Driver/Inc/stm32f1xx_hal_gpio.h"
ARM GAS  C:\Users\86184\AppData\Local\Temp\ccTOwkVr.s 			page 5

