ARM GAS  C:\Users\86184\AppData\Local\Temp\ccT1ePg0.s 			page 1


   1              		.cpu cortex-m3
   2              		.arch armv7-m
   3              		.fpu softvfp
   4              		.eabi_attribute 20, 1
   5              		.eabi_attribute 21, 1
   6              		.eabi_attribute 23, 3
   7              		.eabi_attribute 24, 1
   8              		.eabi_attribute 25, 1
   9              		.eabi_attribute 26, 1
  10              		.eabi_attribute 30, 2
  11              		.eabi_attribute 34, 1
  12              		.eabi_attribute 18, 4
  13              		.file	"stm32f1xx_hal_dma.c"
  14              		.text
  15              	.Ltext0:
  16              		.cfi_sections	.debug_frame
  17              		.file 1 "Drivers/STM32F1xx_HAL_Driver/Src/stm32f1xx_hal_dma.c"
  18              		.section	.text.HAL_DMA_Init,"ax",%progbits
  19              		.align	1
  20              		.p2align 2,,3
  21              		.global	HAL_DMA_Init
  22              		.syntax unified
  23              		.thumb
  24              		.thumb_func
  26              	HAL_DMA_Init:
  27              	.LVL0:
  28              	.LFB65:
   1:Drivers/STM32F1xx_HAL_Driver/Src/stm32f1xx_hal_dma.c **** /**
   2:Drivers/STM32F1xx_HAL_Driver/Src/stm32f1xx_hal_dma.c ****   ******************************************************************************
   3:Drivers/STM32F1xx_HAL_Driver/Src/stm32f1xx_hal_dma.c ****   * @file    stm32f1xx_hal_dma.c
   4:Drivers/STM32F1xx_HAL_Driver/Src/stm32f1xx_hal_dma.c ****   * @author  MCD Application Team
   5:Drivers/STM32F1xx_HAL_Driver/Src/stm32f1xx_hal_dma.c ****   * @brief   DMA HAL module driver.
   6:Drivers/STM32F1xx_HAL_Driver/Src/stm32f1xx_hal_dma.c ****   *         This file provides firmware functions to manage the following
   7:Drivers/STM32F1xx_HAL_Driver/Src/stm32f1xx_hal_dma.c ****   *         functionalities of the Direct Memory Access (DMA) peripheral:
   8:Drivers/STM32F1xx_HAL_Driver/Src/stm32f1xx_hal_dma.c ****   *           + Initialization and de-initialization functions
   9:Drivers/STM32F1xx_HAL_Driver/Src/stm32f1xx_hal_dma.c ****   *           + IO operation functions
  10:Drivers/STM32F1xx_HAL_Driver/Src/stm32f1xx_hal_dma.c ****   *           + Peripheral State and errors functions
  11:Drivers/STM32F1xx_HAL_Driver/Src/stm32f1xx_hal_dma.c ****   @verbatim
  12:Drivers/STM32F1xx_HAL_Driver/Src/stm32f1xx_hal_dma.c ****   ==============================================================================
  13:Drivers/STM32F1xx_HAL_Driver/Src/stm32f1xx_hal_dma.c ****                         ##### How to use this driver #####
  14:Drivers/STM32F1xx_HAL_Driver/Src/stm32f1xx_hal_dma.c ****   ==============================================================================
  15:Drivers/STM32F1xx_HAL_Driver/Src/stm32f1xx_hal_dma.c ****   [..]
  16:Drivers/STM32F1xx_HAL_Driver/Src/stm32f1xx_hal_dma.c ****    (#) Enable and configure the peripheral to be connected to the DMA Channel
  17:Drivers/STM32F1xx_HAL_Driver/Src/stm32f1xx_hal_dma.c ****        (except for internal SRAM / FLASH memories: no initialization is 
  18:Drivers/STM32F1xx_HAL_Driver/Src/stm32f1xx_hal_dma.c ****        necessary). Please refer to the Reference manual for connection between peripherals
  19:Drivers/STM32F1xx_HAL_Driver/Src/stm32f1xx_hal_dma.c ****        and DMA requests.
  20:Drivers/STM32F1xx_HAL_Driver/Src/stm32f1xx_hal_dma.c **** 
  21:Drivers/STM32F1xx_HAL_Driver/Src/stm32f1xx_hal_dma.c ****    (#) For a given Channel, program the required configuration through the following parameters:
  22:Drivers/STM32F1xx_HAL_Driver/Src/stm32f1xx_hal_dma.c ****        Channel request, Transfer Direction, Source and Destination data formats,
  23:Drivers/STM32F1xx_HAL_Driver/Src/stm32f1xx_hal_dma.c ****        Circular or Normal mode, Channel Priority level, Source and Destination Increment mode
  24:Drivers/STM32F1xx_HAL_Driver/Src/stm32f1xx_hal_dma.c ****        using HAL_DMA_Init() function.
  25:Drivers/STM32F1xx_HAL_Driver/Src/stm32f1xx_hal_dma.c **** 
  26:Drivers/STM32F1xx_HAL_Driver/Src/stm32f1xx_hal_dma.c ****    (#) Use HAL_DMA_GetState() function to return the DMA state and HAL_DMA_GetError() in case of er
  27:Drivers/STM32F1xx_HAL_Driver/Src/stm32f1xx_hal_dma.c ****        detection.
  28:Drivers/STM32F1xx_HAL_Driver/Src/stm32f1xx_hal_dma.c ****                     
  29:Drivers/STM32F1xx_HAL_Driver/Src/stm32f1xx_hal_dma.c ****    (#) Use HAL_DMA_Abort() function to abort the current transfer
  30:Drivers/STM32F1xx_HAL_Driver/Src/stm32f1xx_hal_dma.c ****                    
ARM GAS  C:\Users\86184\AppData\Local\Temp\ccT1ePg0.s 			page 2


  31:Drivers/STM32F1xx_HAL_Driver/Src/stm32f1xx_hal_dma.c ****      -@-   In Memory-to-Memory transfer mode, Circular mode is not allowed.
  32:Drivers/STM32F1xx_HAL_Driver/Src/stm32f1xx_hal_dma.c ****      *** Polling mode IO operation ***
  33:Drivers/STM32F1xx_HAL_Driver/Src/stm32f1xx_hal_dma.c ****      =================================
  34:Drivers/STM32F1xx_HAL_Driver/Src/stm32f1xx_hal_dma.c ****     [..]
  35:Drivers/STM32F1xx_HAL_Driver/Src/stm32f1xx_hal_dma.c ****           (+) Use HAL_DMA_Start() to start DMA transfer after the configuration of Source
  36:Drivers/STM32F1xx_HAL_Driver/Src/stm32f1xx_hal_dma.c ****               address and destination address and the Length of data to be transferred
  37:Drivers/STM32F1xx_HAL_Driver/Src/stm32f1xx_hal_dma.c ****           (+) Use HAL_DMA_PollForTransfer() to poll for the end of current transfer, in this
  38:Drivers/STM32F1xx_HAL_Driver/Src/stm32f1xx_hal_dma.c ****               case a fixed Timeout can be configured by User depending from his application.
  39:Drivers/STM32F1xx_HAL_Driver/Src/stm32f1xx_hal_dma.c **** 
  40:Drivers/STM32F1xx_HAL_Driver/Src/stm32f1xx_hal_dma.c ****      *** Interrupt mode IO operation ***
  41:Drivers/STM32F1xx_HAL_Driver/Src/stm32f1xx_hal_dma.c ****      ===================================
  42:Drivers/STM32F1xx_HAL_Driver/Src/stm32f1xx_hal_dma.c ****     [..]
  43:Drivers/STM32F1xx_HAL_Driver/Src/stm32f1xx_hal_dma.c ****           (+) Configure the DMA interrupt priority using HAL_NVIC_SetPriority()
  44:Drivers/STM32F1xx_HAL_Driver/Src/stm32f1xx_hal_dma.c ****           (+) Enable the DMA IRQ handler using HAL_NVIC_EnableIRQ()
  45:Drivers/STM32F1xx_HAL_Driver/Src/stm32f1xx_hal_dma.c ****           (+) Use HAL_DMA_Start_IT() to start DMA transfer after the configuration of
  46:Drivers/STM32F1xx_HAL_Driver/Src/stm32f1xx_hal_dma.c ****               Source address and destination address and the Length of data to be transferred.
  47:Drivers/STM32F1xx_HAL_Driver/Src/stm32f1xx_hal_dma.c ****               In this case the DMA interrupt is configured
  48:Drivers/STM32F1xx_HAL_Driver/Src/stm32f1xx_hal_dma.c ****           (+) Use HAL_DMA_IRQHandler() called under DMA_IRQHandler() Interrupt subroutine
  49:Drivers/STM32F1xx_HAL_Driver/Src/stm32f1xx_hal_dma.c ****           (+) At the end of data transfer HAL_DMA_IRQHandler() function is executed and user can
  50:Drivers/STM32F1xx_HAL_Driver/Src/stm32f1xx_hal_dma.c ****               add his own function by customization of function pointer XferCpltCallback and
  51:Drivers/STM32F1xx_HAL_Driver/Src/stm32f1xx_hal_dma.c ****               XferErrorCallback (i.e. a member of DMA handle structure).
  52:Drivers/STM32F1xx_HAL_Driver/Src/stm32f1xx_hal_dma.c **** 
  53:Drivers/STM32F1xx_HAL_Driver/Src/stm32f1xx_hal_dma.c ****      *** DMA HAL driver macros list ***
  54:Drivers/STM32F1xx_HAL_Driver/Src/stm32f1xx_hal_dma.c ****      ============================================= 
  55:Drivers/STM32F1xx_HAL_Driver/Src/stm32f1xx_hal_dma.c ****       [..]
  56:Drivers/STM32F1xx_HAL_Driver/Src/stm32f1xx_hal_dma.c ****        Below the list of most used macros in DMA HAL driver.
  57:Drivers/STM32F1xx_HAL_Driver/Src/stm32f1xx_hal_dma.c **** 
  58:Drivers/STM32F1xx_HAL_Driver/Src/stm32f1xx_hal_dma.c ****        (+) __HAL_DMA_ENABLE: Enable the specified DMA Channel.
  59:Drivers/STM32F1xx_HAL_Driver/Src/stm32f1xx_hal_dma.c ****        (+) __HAL_DMA_DISABLE: Disable the specified DMA Channel.
  60:Drivers/STM32F1xx_HAL_Driver/Src/stm32f1xx_hal_dma.c ****        (+) __HAL_DMA_GET_FLAG: Get the DMA Channel pending flags.
  61:Drivers/STM32F1xx_HAL_Driver/Src/stm32f1xx_hal_dma.c ****        (+) __HAL_DMA_CLEAR_FLAG: Clear the DMA Channel pending flags.
  62:Drivers/STM32F1xx_HAL_Driver/Src/stm32f1xx_hal_dma.c ****        (+) __HAL_DMA_ENABLE_IT: Enable the specified DMA Channel interrupts.
  63:Drivers/STM32F1xx_HAL_Driver/Src/stm32f1xx_hal_dma.c ****        (+) __HAL_DMA_DISABLE_IT: Disable the specified DMA Channel interrupts.
  64:Drivers/STM32F1xx_HAL_Driver/Src/stm32f1xx_hal_dma.c ****        (+) __HAL_DMA_GET_IT_SOURCE: Check whether the specified DMA Channel interrupt has occurred 
  65:Drivers/STM32F1xx_HAL_Driver/Src/stm32f1xx_hal_dma.c **** 
  66:Drivers/STM32F1xx_HAL_Driver/Src/stm32f1xx_hal_dma.c ****      [..] 
  67:Drivers/STM32F1xx_HAL_Driver/Src/stm32f1xx_hal_dma.c ****       (@) You can refer to the DMA HAL driver header file for more useful macros  
  68:Drivers/STM32F1xx_HAL_Driver/Src/stm32f1xx_hal_dma.c **** 
  69:Drivers/STM32F1xx_HAL_Driver/Src/stm32f1xx_hal_dma.c ****   @endverbatim
  70:Drivers/STM32F1xx_HAL_Driver/Src/stm32f1xx_hal_dma.c ****   ******************************************************************************
  71:Drivers/STM32F1xx_HAL_Driver/Src/stm32f1xx_hal_dma.c ****   * @attention
  72:Drivers/STM32F1xx_HAL_Driver/Src/stm32f1xx_hal_dma.c ****   *
  73:Drivers/STM32F1xx_HAL_Driver/Src/stm32f1xx_hal_dma.c ****   * <h2><center>&copy; Copyright (c) 2016 STMicroelectronics.
  74:Drivers/STM32F1xx_HAL_Driver/Src/stm32f1xx_hal_dma.c ****   * All rights reserved.</center></h2>
  75:Drivers/STM32F1xx_HAL_Driver/Src/stm32f1xx_hal_dma.c ****   *
  76:Drivers/STM32F1xx_HAL_Driver/Src/stm32f1xx_hal_dma.c ****   * This software component is licensed by ST under BSD 3-Clause license,
  77:Drivers/STM32F1xx_HAL_Driver/Src/stm32f1xx_hal_dma.c ****   * the "License"; You may not use this file except in compliance with the
  78:Drivers/STM32F1xx_HAL_Driver/Src/stm32f1xx_hal_dma.c ****   * License. You may obtain a copy of the License at:
  79:Drivers/STM32F1xx_HAL_Driver/Src/stm32f1xx_hal_dma.c ****   *                        opensource.org/licenses/BSD-3-Clause
  80:Drivers/STM32F1xx_HAL_Driver/Src/stm32f1xx_hal_dma.c ****   *
  81:Drivers/STM32F1xx_HAL_Driver/Src/stm32f1xx_hal_dma.c ****   ******************************************************************************
  82:Drivers/STM32F1xx_HAL_Driver/Src/stm32f1xx_hal_dma.c ****   */
  83:Drivers/STM32F1xx_HAL_Driver/Src/stm32f1xx_hal_dma.c **** 
  84:Drivers/STM32F1xx_HAL_Driver/Src/stm32f1xx_hal_dma.c **** /* Includes ------------------------------------------------------------------*/
  85:Drivers/STM32F1xx_HAL_Driver/Src/stm32f1xx_hal_dma.c **** #include "stm32f1xx_hal.h"
  86:Drivers/STM32F1xx_HAL_Driver/Src/stm32f1xx_hal_dma.c **** 
  87:Drivers/STM32F1xx_HAL_Driver/Src/stm32f1xx_hal_dma.c **** /** @addtogroup STM32F1xx_HAL_Driver
ARM GAS  C:\Users\86184\AppData\Local\Temp\ccT1ePg0.s 			page 3


  88:Drivers/STM32F1xx_HAL_Driver/Src/stm32f1xx_hal_dma.c ****   * @{
  89:Drivers/STM32F1xx_HAL_Driver/Src/stm32f1xx_hal_dma.c ****   */
  90:Drivers/STM32F1xx_HAL_Driver/Src/stm32f1xx_hal_dma.c **** 
  91:Drivers/STM32F1xx_HAL_Driver/Src/stm32f1xx_hal_dma.c **** /** @defgroup DMA DMA
  92:Drivers/STM32F1xx_HAL_Driver/Src/stm32f1xx_hal_dma.c ****   * @brief DMA HAL module driver
  93:Drivers/STM32F1xx_HAL_Driver/Src/stm32f1xx_hal_dma.c ****   * @{
  94:Drivers/STM32F1xx_HAL_Driver/Src/stm32f1xx_hal_dma.c ****   */
  95:Drivers/STM32F1xx_HAL_Driver/Src/stm32f1xx_hal_dma.c **** 
  96:Drivers/STM32F1xx_HAL_Driver/Src/stm32f1xx_hal_dma.c **** #ifdef HAL_DMA_MODULE_ENABLED
  97:Drivers/STM32F1xx_HAL_Driver/Src/stm32f1xx_hal_dma.c **** 
  98:Drivers/STM32F1xx_HAL_Driver/Src/stm32f1xx_hal_dma.c **** /* Private typedef -----------------------------------------------------------*/
  99:Drivers/STM32F1xx_HAL_Driver/Src/stm32f1xx_hal_dma.c **** /* Private define ------------------------------------------------------------*/
 100:Drivers/STM32F1xx_HAL_Driver/Src/stm32f1xx_hal_dma.c **** /* Private macro -------------------------------------------------------------*/
 101:Drivers/STM32F1xx_HAL_Driver/Src/stm32f1xx_hal_dma.c **** /* Private variables ---------------------------------------------------------*/
 102:Drivers/STM32F1xx_HAL_Driver/Src/stm32f1xx_hal_dma.c **** /* Private function prototypes -----------------------------------------------*/
 103:Drivers/STM32F1xx_HAL_Driver/Src/stm32f1xx_hal_dma.c **** /** @defgroup DMA_Private_Functions DMA Private Functions
 104:Drivers/STM32F1xx_HAL_Driver/Src/stm32f1xx_hal_dma.c ****   * @{
 105:Drivers/STM32F1xx_HAL_Driver/Src/stm32f1xx_hal_dma.c ****   */
 106:Drivers/STM32F1xx_HAL_Driver/Src/stm32f1xx_hal_dma.c **** static void DMA_SetConfig(DMA_HandleTypeDef *hdma, uint32_t SrcAddress, uint32_t DstAddress, uint32
 107:Drivers/STM32F1xx_HAL_Driver/Src/stm32f1xx_hal_dma.c **** /**
 108:Drivers/STM32F1xx_HAL_Driver/Src/stm32f1xx_hal_dma.c ****   * @}
 109:Drivers/STM32F1xx_HAL_Driver/Src/stm32f1xx_hal_dma.c ****   */
 110:Drivers/STM32F1xx_HAL_Driver/Src/stm32f1xx_hal_dma.c **** 
 111:Drivers/STM32F1xx_HAL_Driver/Src/stm32f1xx_hal_dma.c **** /* Exported functions ---------------------------------------------------------*/
 112:Drivers/STM32F1xx_HAL_Driver/Src/stm32f1xx_hal_dma.c **** 
 113:Drivers/STM32F1xx_HAL_Driver/Src/stm32f1xx_hal_dma.c **** /** @defgroup DMA_Exported_Functions DMA Exported Functions
 114:Drivers/STM32F1xx_HAL_Driver/Src/stm32f1xx_hal_dma.c ****   * @{
 115:Drivers/STM32F1xx_HAL_Driver/Src/stm32f1xx_hal_dma.c ****   */
 116:Drivers/STM32F1xx_HAL_Driver/Src/stm32f1xx_hal_dma.c **** 
 117:Drivers/STM32F1xx_HAL_Driver/Src/stm32f1xx_hal_dma.c **** /** @defgroup DMA_Exported_Functions_Group1 Initialization and de-initialization functions
 118:Drivers/STM32F1xx_HAL_Driver/Src/stm32f1xx_hal_dma.c ****   *  @brief   Initialization and de-initialization functions 
 119:Drivers/STM32F1xx_HAL_Driver/Src/stm32f1xx_hal_dma.c ****   *
 120:Drivers/STM32F1xx_HAL_Driver/Src/stm32f1xx_hal_dma.c **** @verbatim
 121:Drivers/STM32F1xx_HAL_Driver/Src/stm32f1xx_hal_dma.c ****  ===============================================================================
 122:Drivers/STM32F1xx_HAL_Driver/Src/stm32f1xx_hal_dma.c ****              ##### Initialization and de-initialization functions  #####
 123:Drivers/STM32F1xx_HAL_Driver/Src/stm32f1xx_hal_dma.c ****  ===============================================================================
 124:Drivers/STM32F1xx_HAL_Driver/Src/stm32f1xx_hal_dma.c ****     [..]
 125:Drivers/STM32F1xx_HAL_Driver/Src/stm32f1xx_hal_dma.c ****     This section provides functions allowing to initialize the DMA Channel source
 126:Drivers/STM32F1xx_HAL_Driver/Src/stm32f1xx_hal_dma.c ****     and destination addresses, incrementation and data sizes, transfer direction, 
 127:Drivers/STM32F1xx_HAL_Driver/Src/stm32f1xx_hal_dma.c ****     circular/normal mode selection, memory-to-memory mode selection and Channel priority value.
 128:Drivers/STM32F1xx_HAL_Driver/Src/stm32f1xx_hal_dma.c ****     [..]
 129:Drivers/STM32F1xx_HAL_Driver/Src/stm32f1xx_hal_dma.c ****     The HAL_DMA_Init() function follows the DMA configuration procedures as described in
 130:Drivers/STM32F1xx_HAL_Driver/Src/stm32f1xx_hal_dma.c ****     reference manual.  
 131:Drivers/STM32F1xx_HAL_Driver/Src/stm32f1xx_hal_dma.c **** 
 132:Drivers/STM32F1xx_HAL_Driver/Src/stm32f1xx_hal_dma.c **** @endverbatim
 133:Drivers/STM32F1xx_HAL_Driver/Src/stm32f1xx_hal_dma.c ****   * @{
 134:Drivers/STM32F1xx_HAL_Driver/Src/stm32f1xx_hal_dma.c ****   */
 135:Drivers/STM32F1xx_HAL_Driver/Src/stm32f1xx_hal_dma.c **** 
 136:Drivers/STM32F1xx_HAL_Driver/Src/stm32f1xx_hal_dma.c **** /**
 137:Drivers/STM32F1xx_HAL_Driver/Src/stm32f1xx_hal_dma.c ****   * @brief  Initialize the DMA according to the specified
 138:Drivers/STM32F1xx_HAL_Driver/Src/stm32f1xx_hal_dma.c ****   *         parameters in the DMA_InitTypeDef and initialize the associated handle.
 139:Drivers/STM32F1xx_HAL_Driver/Src/stm32f1xx_hal_dma.c ****   * @param  hdma: Pointer to a DMA_HandleTypeDef structure that contains
 140:Drivers/STM32F1xx_HAL_Driver/Src/stm32f1xx_hal_dma.c ****   *               the configuration information for the specified DMA Channel.
 141:Drivers/STM32F1xx_HAL_Driver/Src/stm32f1xx_hal_dma.c ****   * @retval HAL status
 142:Drivers/STM32F1xx_HAL_Driver/Src/stm32f1xx_hal_dma.c ****   */
 143:Drivers/STM32F1xx_HAL_Driver/Src/stm32f1xx_hal_dma.c **** HAL_StatusTypeDef HAL_DMA_Init(DMA_HandleTypeDef *hdma)
 144:Drivers/STM32F1xx_HAL_Driver/Src/stm32f1xx_hal_dma.c **** {
ARM GAS  C:\Users\86184\AppData\Local\Temp\ccT1ePg0.s 			page 4


  29              		.loc 1 144 1 view -0
  30              		.cfi_startproc
  31              		@ args = 0, pretend = 0, frame = 0
  32              		@ frame_needed = 0, uses_anonymous_args = 0
 145:Drivers/STM32F1xx_HAL_Driver/Src/stm32f1xx_hal_dma.c ****   uint32_t tmp = 0U;
  33              		.loc 1 145 3 view .LVU1
 146:Drivers/STM32F1xx_HAL_Driver/Src/stm32f1xx_hal_dma.c **** 
 147:Drivers/STM32F1xx_HAL_Driver/Src/stm32f1xx_hal_dma.c ****   /* Check the DMA handle allocation */
 148:Drivers/STM32F1xx_HAL_Driver/Src/stm32f1xx_hal_dma.c ****   if(hdma == NULL)
  34              		.loc 1 148 3 view .LVU2
  35              		.loc 1 148 5 is_stmt 0 view .LVU3
  36 0000 0028     		cmp	r0, #0
  37 0002 35D0     		beq	.L5
  38 0004 0346     		mov	r3, r0
 149:Drivers/STM32F1xx_HAL_Driver/Src/stm32f1xx_hal_dma.c ****   {
 150:Drivers/STM32F1xx_HAL_Driver/Src/stm32f1xx_hal_dma.c ****     return HAL_ERROR;
 151:Drivers/STM32F1xx_HAL_Driver/Src/stm32f1xx_hal_dma.c ****   }
 152:Drivers/STM32F1xx_HAL_Driver/Src/stm32f1xx_hal_dma.c **** 
 153:Drivers/STM32F1xx_HAL_Driver/Src/stm32f1xx_hal_dma.c ****   /* Check the parameters */
 154:Drivers/STM32F1xx_HAL_Driver/Src/stm32f1xx_hal_dma.c ****   assert_param(IS_DMA_ALL_INSTANCE(hdma->Instance));
  39              		.loc 1 154 3 is_stmt 1 view .LVU4
 155:Drivers/STM32F1xx_HAL_Driver/Src/stm32f1xx_hal_dma.c ****   assert_param(IS_DMA_DIRECTION(hdma->Init.Direction));
  40              		.loc 1 155 3 view .LVU5
 156:Drivers/STM32F1xx_HAL_Driver/Src/stm32f1xx_hal_dma.c ****   assert_param(IS_DMA_PERIPHERAL_INC_STATE(hdma->Init.PeriphInc));
  41              		.loc 1 156 3 view .LVU6
 157:Drivers/STM32F1xx_HAL_Driver/Src/stm32f1xx_hal_dma.c ****   assert_param(IS_DMA_MEMORY_INC_STATE(hdma->Init.MemInc));
  42              		.loc 1 157 3 view .LVU7
 158:Drivers/STM32F1xx_HAL_Driver/Src/stm32f1xx_hal_dma.c ****   assert_param(IS_DMA_PERIPHERAL_DATA_SIZE(hdma->Init.PeriphDataAlignment));
  43              		.loc 1 158 3 view .LVU8
 159:Drivers/STM32F1xx_HAL_Driver/Src/stm32f1xx_hal_dma.c ****   assert_param(IS_DMA_MEMORY_DATA_SIZE(hdma->Init.MemDataAlignment));
  44              		.loc 1 159 3 view .LVU9
 160:Drivers/STM32F1xx_HAL_Driver/Src/stm32f1xx_hal_dma.c ****   assert_param(IS_DMA_MODE(hdma->Init.Mode));
  45              		.loc 1 160 3 view .LVU10
 161:Drivers/STM32F1xx_HAL_Driver/Src/stm32f1xx_hal_dma.c ****   assert_param(IS_DMA_PRIORITY(hdma->Init.Priority));
  46              		.loc 1 161 3 view .LVU11
 162:Drivers/STM32F1xx_HAL_Driver/Src/stm32f1xx_hal_dma.c **** 
 163:Drivers/STM32F1xx_HAL_Driver/Src/stm32f1xx_hal_dma.c **** #if defined (DMA2)
 164:Drivers/STM32F1xx_HAL_Driver/Src/stm32f1xx_hal_dma.c ****   /* calculation of the channel index */
 165:Drivers/STM32F1xx_HAL_Driver/Src/stm32f1xx_hal_dma.c ****   if ((uint32_t)(hdma->Instance) < (uint32_t)(DMA2_Channel1))
  47              		.loc 1 165 3 view .LVU12
  48              		.loc 1 165 6 is_stmt 0 view .LVU13
  49 0006 1B4A     		ldr	r2, .L12
  50              		.loc 1 165 22 view .LVU14
  51 0008 0068     		ldr	r0, [r0]
  52              	.LVL1:
 144:Drivers/STM32F1xx_HAL_Driver/Src/stm32f1xx_hal_dma.c ****   uint32_t tmp = 0U;
  53              		.loc 1 144 1 view .LVU15
  54 000a 30B5     		push	{r4, r5, lr}
  55              	.LCFI0:
  56              		.cfi_def_cfa_offset 12
  57              		.cfi_offset 4, -12
  58              		.cfi_offset 5, -8
  59              		.cfi_offset 14, -4
  60              		.loc 1 165 6 view .LVU16
  61 000c 9042     		cmp	r0, r2
  62 000e 26D9     		bls	.L11
 166:Drivers/STM32F1xx_HAL_Driver/Src/stm32f1xx_hal_dma.c ****   {
ARM GAS  C:\Users\86184\AppData\Local\Temp\ccT1ePg0.s 			page 5


 167:Drivers/STM32F1xx_HAL_Driver/Src/stm32f1xx_hal_dma.c ****     /* DMA1 */
 168:Drivers/STM32F1xx_HAL_Driver/Src/stm32f1xx_hal_dma.c ****     hdma->ChannelIndex = (((uint32_t)hdma->Instance - (uint32_t)DMA1_Channel1) / ((uint32_t)DMA1_Ch
 169:Drivers/STM32F1xx_HAL_Driver/Src/stm32f1xx_hal_dma.c ****     hdma->DmaBaseAddress = DMA1;
 170:Drivers/STM32F1xx_HAL_Driver/Src/stm32f1xx_hal_dma.c ****   }
 171:Drivers/STM32F1xx_HAL_Driver/Src/stm32f1xx_hal_dma.c ****   else 
 172:Drivers/STM32F1xx_HAL_Driver/Src/stm32f1xx_hal_dma.c ****   {
 173:Drivers/STM32F1xx_HAL_Driver/Src/stm32f1xx_hal_dma.c ****     /* DMA2 */
 174:Drivers/STM32F1xx_HAL_Driver/Src/stm32f1xx_hal_dma.c ****     hdma->ChannelIndex = (((uint32_t)hdma->Instance - (uint32_t)DMA2_Channel1) / ((uint32_t)DMA2_Ch
  63              		.loc 1 174 5 is_stmt 1 view .LVU17
  64              		.loc 1 174 53 is_stmt 0 view .LVU18
  65 0010 1949     		ldr	r1, .L12+4
  66              		.loc 1 174 80 view .LVU19
  67 0012 1A4A     		ldr	r2, .L12+8
  68              		.loc 1 174 53 view .LVU20
  69 0014 0144     		add	r1, r1, r0
  70              		.loc 1 174 80 view .LVU21
  71 0016 A2FB0121 		umull	r2, r1, r2, r1
 175:Drivers/STM32F1xx_HAL_Driver/Src/stm32f1xx_hal_dma.c ****     hdma->DmaBaseAddress = DMA2;
  72              		.loc 1 175 26 view .LVU22
  73 001a 194D     		ldr	r5, .L12+12
 174:Drivers/STM32F1xx_HAL_Driver/Src/stm32f1xx_hal_dma.c ****     hdma->DmaBaseAddress = DMA2;
  74              		.loc 1 174 80 view .LVU23
  75 001c 0909     		lsrs	r1, r1, #4
 174:Drivers/STM32F1xx_HAL_Driver/Src/stm32f1xx_hal_dma.c ****     hdma->DmaBaseAddress = DMA2;
  76              		.loc 1 174 135 view .LVU24
  77 001e 8900     		lsls	r1, r1, #2
  78              		.loc 1 175 5 is_stmt 1 view .LVU25
  79              	.L4:
 176:Drivers/STM32F1xx_HAL_Driver/Src/stm32f1xx_hal_dma.c ****   }
 177:Drivers/STM32F1xx_HAL_Driver/Src/stm32f1xx_hal_dma.c **** #else
 178:Drivers/STM32F1xx_HAL_Driver/Src/stm32f1xx_hal_dma.c ****   /* DMA1 */
 179:Drivers/STM32F1xx_HAL_Driver/Src/stm32f1xx_hal_dma.c ****   hdma->ChannelIndex = (((uint32_t)hdma->Instance - (uint32_t)DMA1_Channel1) / ((uint32_t)DMA1_Chan
 180:Drivers/STM32F1xx_HAL_Driver/Src/stm32f1xx_hal_dma.c ****   hdma->DmaBaseAddress = DMA1;
 181:Drivers/STM32F1xx_HAL_Driver/Src/stm32f1xx_hal_dma.c **** #endif /* DMA2 */
 182:Drivers/STM32F1xx_HAL_Driver/Src/stm32f1xx_hal_dma.c **** 
 183:Drivers/STM32F1xx_HAL_Driver/Src/stm32f1xx_hal_dma.c ****   /* Change DMA peripheral state */
 184:Drivers/STM32F1xx_HAL_Driver/Src/stm32f1xx_hal_dma.c ****   hdma->State = HAL_DMA_STATE_BUSY;
 185:Drivers/STM32F1xx_HAL_Driver/Src/stm32f1xx_hal_dma.c **** 
 186:Drivers/STM32F1xx_HAL_Driver/Src/stm32f1xx_hal_dma.c ****   /* Get the CR register value */
 187:Drivers/STM32F1xx_HAL_Driver/Src/stm32f1xx_hal_dma.c ****   tmp = hdma->Instance->CCR;
 188:Drivers/STM32F1xx_HAL_Driver/Src/stm32f1xx_hal_dma.c **** 
 189:Drivers/STM32F1xx_HAL_Driver/Src/stm32f1xx_hal_dma.c ****   /* Clear PL, MSIZE, PSIZE, MINC, PINC, CIRC and DIR bits */
 190:Drivers/STM32F1xx_HAL_Driver/Src/stm32f1xx_hal_dma.c ****   tmp &= ((uint32_t)~(DMA_CCR_PL    | DMA_CCR_MSIZE  | DMA_CCR_PSIZE  | \
 191:Drivers/STM32F1xx_HAL_Driver/Src/stm32f1xx_hal_dma.c ****                       DMA_CCR_MINC  | DMA_CCR_PINC   | DMA_CCR_CIRC   | \
 192:Drivers/STM32F1xx_HAL_Driver/Src/stm32f1xx_hal_dma.c ****                       DMA_CCR_DIR));
 193:Drivers/STM32F1xx_HAL_Driver/Src/stm32f1xx_hal_dma.c **** 
 194:Drivers/STM32F1xx_HAL_Driver/Src/stm32f1xx_hal_dma.c ****   /* Prepare the DMA Channel configuration */
 195:Drivers/STM32F1xx_HAL_Driver/Src/stm32f1xx_hal_dma.c ****   tmp |=  hdma->Init.Direction        |
 196:Drivers/STM32F1xx_HAL_Driver/Src/stm32f1xx_hal_dma.c ****           hdma->Init.PeriphInc           | hdma->Init.MemInc           |
 197:Drivers/STM32F1xx_HAL_Driver/Src/stm32f1xx_hal_dma.c ****           hdma->Init.PeriphDataAlignment | hdma->Init.MemDataAlignment |
 198:Drivers/STM32F1xx_HAL_Driver/Src/stm32f1xx_hal_dma.c ****           hdma->Init.Mode                | hdma->Init.Priority;
 199:Drivers/STM32F1xx_HAL_Driver/Src/stm32f1xx_hal_dma.c **** 
 200:Drivers/STM32F1xx_HAL_Driver/Src/stm32f1xx_hal_dma.c ****   /* Write to DMA Channel CR register */
 201:Drivers/STM32F1xx_HAL_Driver/Src/stm32f1xx_hal_dma.c ****   hdma->Instance->CCR = tmp;
 202:Drivers/STM32F1xx_HAL_Driver/Src/stm32f1xx_hal_dma.c **** 
 203:Drivers/STM32F1xx_HAL_Driver/Src/stm32f1xx_hal_dma.c ****   /* Initialise the error code */
 204:Drivers/STM32F1xx_HAL_Driver/Src/stm32f1xx_hal_dma.c ****   hdma->ErrorCode = HAL_DMA_ERROR_NONE;
ARM GAS  C:\Users\86184\AppData\Local\Temp\ccT1ePg0.s 			page 6


 205:Drivers/STM32F1xx_HAL_Driver/Src/stm32f1xx_hal_dma.c **** 
 206:Drivers/STM32F1xx_HAL_Driver/Src/stm32f1xx_hal_dma.c ****   /* Initialize the DMA state*/
 207:Drivers/STM32F1xx_HAL_Driver/Src/stm32f1xx_hal_dma.c ****   hdma->State = HAL_DMA_STATE_READY;
 208:Drivers/STM32F1xx_HAL_Driver/Src/stm32f1xx_hal_dma.c ****   /* Allocate lock resource and initialize it */
 209:Drivers/STM32F1xx_HAL_Driver/Src/stm32f1xx_hal_dma.c ****   hdma->Lock = HAL_UNLOCKED;
  80              		.loc 1 209 14 is_stmt 0 view .LVU26
  81 0020 4FF4807E 		mov	lr, #256
 187:Drivers/STM32F1xx_HAL_Driver/Src/stm32f1xx_hal_dma.c **** 
  82              		.loc 1 187 7 view .LVU27
  83 0024 0468     		ldr	r4, [r0]
  84              	.LVL2:
 187:Drivers/STM32F1xx_HAL_Driver/Src/stm32f1xx_hal_dma.c **** 
  85              		.loc 1 187 7 view .LVU28
  86 0026 1964     		str	r1, [r3, #64]
 204:Drivers/STM32F1xx_HAL_Driver/Src/stm32f1xx_hal_dma.c **** 
  87              		.loc 1 204 19 view .LVU29
  88 0028 0021     		movs	r1, #0
 195:Drivers/STM32F1xx_HAL_Driver/Src/stm32f1xx_hal_dma.c ****           hdma->Init.PeriphInc           | hdma->Init.MemInc           |
  89              		.loc 1 195 39 view .LVU30
  90 002a 5A68     		ldr	r2, [r3, #4]
 190:Drivers/STM32F1xx_HAL_Driver/Src/stm32f1xx_hal_dma.c ****                       DMA_CCR_MINC  | DMA_CCR_PINC   | DMA_CCR_CIRC   | \
  91              		.loc 1 190 7 view .LVU31
  92 002c 24F47F5C 		bic	ip, r4, #16320
 195:Drivers/STM32F1xx_HAL_Driver/Src/stm32f1xx_hal_dma.c ****           hdma->Init.PeriphInc           | hdma->Init.MemInc           |
  93              		.loc 1 195 39 view .LVU32
  94 0030 9C68     		ldr	r4, [r3, #8]
 190:Drivers/STM32F1xx_HAL_Driver/Src/stm32f1xx_hal_dma.c ****                       DMA_CCR_MINC  | DMA_CCR_PINC   | DMA_CCR_CIRC   | \
  95              		.loc 1 190 7 view .LVU33
  96 0032 2CF0300C 		bic	ip, ip, #48
 195:Drivers/STM32F1xx_HAL_Driver/Src/stm32f1xx_hal_dma.c ****           hdma->Init.PeriphInc           | hdma->Init.MemInc           |
  97              		.loc 1 195 39 view .LVU34
  98 0036 2243     		orrs	r2, r2, r4
 196:Drivers/STM32F1xx_HAL_Driver/Src/stm32f1xx_hal_dma.c ****           hdma->Init.PeriphDataAlignment | hdma->Init.MemDataAlignment |
  99              		.loc 1 196 42 view .LVU35
 100 0038 DC68     		ldr	r4, [r3, #12]
 101 003a DD63     		str	r5, [r3, #60]
 184:Drivers/STM32F1xx_HAL_Driver/Src/stm32f1xx_hal_dma.c **** 
 102              		.loc 1 184 3 is_stmt 1 view .LVU36
 187:Drivers/STM32F1xx_HAL_Driver/Src/stm32f1xx_hal_dma.c **** 
 103              		.loc 1 187 3 view .LVU37
 104              	.LVL3:
 190:Drivers/STM32F1xx_HAL_Driver/Src/stm32f1xx_hal_dma.c ****                       DMA_CCR_MINC  | DMA_CCR_PINC   | DMA_CCR_CIRC   | \
 105              		.loc 1 190 3 view .LVU38
 195:Drivers/STM32F1xx_HAL_Driver/Src/stm32f1xx_hal_dma.c ****           hdma->Init.PeriphInc           | hdma->Init.MemInc           |
 106              		.loc 1 195 3 view .LVU39
 196:Drivers/STM32F1xx_HAL_Driver/Src/stm32f1xx_hal_dma.c ****           hdma->Init.PeriphDataAlignment | hdma->Init.MemDataAlignment |
 107              		.loc 1 196 42 is_stmt 0 view .LVU40
 108 003c 2243     		orrs	r2, r2, r4
 196:Drivers/STM32F1xx_HAL_Driver/Src/stm32f1xx_hal_dma.c ****           hdma->Init.PeriphDataAlignment | hdma->Init.MemDataAlignment |
 109              		.loc 1 196 72 view .LVU41
 110 003e 1C69     		ldr	r4, [r3, #16]
 111 0040 2243     		orrs	r2, r2, r4
 197:Drivers/STM32F1xx_HAL_Driver/Src/stm32f1xx_hal_dma.c ****           hdma->Init.Mode                | hdma->Init.Priority;
 112              		.loc 1 197 42 view .LVU42
 113 0042 5C69     		ldr	r4, [r3, #20]
 114 0044 2243     		orrs	r2, r2, r4
 197:Drivers/STM32F1xx_HAL_Driver/Src/stm32f1xx_hal_dma.c ****           hdma->Init.Mode                | hdma->Init.Priority;
ARM GAS  C:\Users\86184\AppData\Local\Temp\ccT1ePg0.s 			page 7


 115              		.loc 1 197 72 view .LVU43
 116 0046 9C69     		ldr	r4, [r3, #24]
 117 0048 2243     		orrs	r2, r2, r4
 198:Drivers/STM32F1xx_HAL_Driver/Src/stm32f1xx_hal_dma.c **** 
 118              		.loc 1 198 42 view .LVU44
 119 004a DC69     		ldr	r4, [r3, #28]
 120 004c 2243     		orrs	r2, r2, r4
 195:Drivers/STM32F1xx_HAL_Driver/Src/stm32f1xx_hal_dma.c ****           hdma->Init.PeriphInc           | hdma->Init.MemInc           |
 121              		.loc 1 195 7 view .LVU45
 122 004e 42EA0C02 		orr	r2, r2, ip
 123              	.LVL4:
 201:Drivers/STM32F1xx_HAL_Driver/Src/stm32f1xx_hal_dma.c **** 
 124              		.loc 1 201 3 is_stmt 1 view .LVU46
 201:Drivers/STM32F1xx_HAL_Driver/Src/stm32f1xx_hal_dma.c **** 
 125              		.loc 1 201 23 is_stmt 0 view .LVU47
 126 0052 0260     		str	r2, [r0]
 204:Drivers/STM32F1xx_HAL_Driver/Src/stm32f1xx_hal_dma.c **** 
 127              		.loc 1 204 3 is_stmt 1 view .LVU48
 128              		.loc 1 209 14 is_stmt 0 view .LVU49
 129 0054 A3F820E0 		strh	lr, [r3, #32]	@ movhi
 210:Drivers/STM32F1xx_HAL_Driver/Src/stm32f1xx_hal_dma.c **** 
 211:Drivers/STM32F1xx_HAL_Driver/Src/stm32f1xx_hal_dma.c ****   return HAL_OK;
 130              		.loc 1 211 10 view .LVU50
 131 0058 0846     		mov	r0, r1
 204:Drivers/STM32F1xx_HAL_Driver/Src/stm32f1xx_hal_dma.c **** 
 132              		.loc 1 204 19 view .LVU51
 133 005a 9963     		str	r1, [r3, #56]
 207:Drivers/STM32F1xx_HAL_Driver/Src/stm32f1xx_hal_dma.c ****   /* Allocate lock resource and initialize it */
 134              		.loc 1 207 3 is_stmt 1 view .LVU52
 209:Drivers/STM32F1xx_HAL_Driver/Src/stm32f1xx_hal_dma.c **** 
 135              		.loc 1 209 3 view .LVU53
 136              		.loc 1 211 3 view .LVU54
 212:Drivers/STM32F1xx_HAL_Driver/Src/stm32f1xx_hal_dma.c **** }
 137              		.loc 1 212 1 is_stmt 0 view .LVU55
 138 005c 30BD     		pop	{r4, r5, pc}
 139              	.LVL5:
 140              	.L11:
 168:Drivers/STM32F1xx_HAL_Driver/Src/stm32f1xx_hal_dma.c ****     hdma->DmaBaseAddress = DMA1;
 141              		.loc 1 168 5 is_stmt 1 view .LVU56
 168:Drivers/STM32F1xx_HAL_Driver/Src/stm32f1xx_hal_dma.c ****     hdma->DmaBaseAddress = DMA1;
 142              		.loc 1 168 53 is_stmt 0 view .LVU57
 143 005e 0949     		ldr	r1, .L12+16
 168:Drivers/STM32F1xx_HAL_Driver/Src/stm32f1xx_hal_dma.c ****     hdma->DmaBaseAddress = DMA1;
 144              		.loc 1 168 80 view .LVU58
 145 0060 064A     		ldr	r2, .L12+8
 168:Drivers/STM32F1xx_HAL_Driver/Src/stm32f1xx_hal_dma.c ****     hdma->DmaBaseAddress = DMA1;
 146              		.loc 1 168 53 view .LVU59
 147 0062 0144     		add	r1, r1, r0
 168:Drivers/STM32F1xx_HAL_Driver/Src/stm32f1xx_hal_dma.c ****     hdma->DmaBaseAddress = DMA1;
 148              		.loc 1 168 80 view .LVU60
 149 0064 A2FB0121 		umull	r2, r1, r2, r1
 150 0068 0909     		lsrs	r1, r1, #4
 169:Drivers/STM32F1xx_HAL_Driver/Src/stm32f1xx_hal_dma.c ****   }
 151              		.loc 1 169 26 view .LVU61
 152 006a 074D     		ldr	r5, .L12+20
 168:Drivers/STM32F1xx_HAL_Driver/Src/stm32f1xx_hal_dma.c ****     hdma->DmaBaseAddress = DMA1;
 153              		.loc 1 168 135 view .LVU62
ARM GAS  C:\Users\86184\AppData\Local\Temp\ccT1ePg0.s 			page 8


 154 006c 8900     		lsls	r1, r1, #2
 169:Drivers/STM32F1xx_HAL_Driver/Src/stm32f1xx_hal_dma.c ****   }
 155              		.loc 1 169 5 is_stmt 1 view .LVU63
 156 006e D7E7     		b	.L4
 157              	.LVL6:
 158              	.L5:
 159              	.LCFI1:
 160              		.cfi_def_cfa_offset 0
 161              		.cfi_restore 4
 162              		.cfi_restore 5
 163              		.cfi_restore 14
 150:Drivers/STM32F1xx_HAL_Driver/Src/stm32f1xx_hal_dma.c ****   }
 164              		.loc 1 150 12 is_stmt 0 view .LVU64
 165 0070 0120     		movs	r0, #1
 166              	.LVL7:
 167              		.loc 1 212 1 view .LVU65
 168 0072 7047     		bx	lr
 169              	.L13:
 170              		.align	2
 171              	.L12:
 172 0074 07040240 		.word	1073873927
 173 0078 F8FBFDBF 		.word	-1073873928
 174 007c CDCCCCCC 		.word	-858993459
 175 0080 00040240 		.word	1073873920
 176 0084 F8FFFDBF 		.word	-1073872904
 177 0088 00000240 		.word	1073872896
 178              		.cfi_endproc
 179              	.LFE65:
 181              		.section	.text.HAL_DMA_DeInit,"ax",%progbits
 182              		.align	1
 183              		.p2align 2,,3
 184              		.global	HAL_DMA_DeInit
 185              		.syntax unified
 186              		.thumb
 187              		.thumb_func
 189              	HAL_DMA_DeInit:
 190              	.LVL8:
 191              	.LFB66:
 213:Drivers/STM32F1xx_HAL_Driver/Src/stm32f1xx_hal_dma.c **** 
 214:Drivers/STM32F1xx_HAL_Driver/Src/stm32f1xx_hal_dma.c **** /**
 215:Drivers/STM32F1xx_HAL_Driver/Src/stm32f1xx_hal_dma.c ****   * @brief  DeInitialize the DMA peripheral.
 216:Drivers/STM32F1xx_HAL_Driver/Src/stm32f1xx_hal_dma.c ****   * @param  hdma: pointer to a DMA_HandleTypeDef structure that contains
 217:Drivers/STM32F1xx_HAL_Driver/Src/stm32f1xx_hal_dma.c ****   *               the configuration information for the specified DMA Channel.
 218:Drivers/STM32F1xx_HAL_Driver/Src/stm32f1xx_hal_dma.c ****   * @retval HAL status
 219:Drivers/STM32F1xx_HAL_Driver/Src/stm32f1xx_hal_dma.c ****   */
 220:Drivers/STM32F1xx_HAL_Driver/Src/stm32f1xx_hal_dma.c **** HAL_StatusTypeDef HAL_DMA_DeInit(DMA_HandleTypeDef *hdma)
 221:Drivers/STM32F1xx_HAL_Driver/Src/stm32f1xx_hal_dma.c **** {
 192              		.loc 1 221 1 is_stmt 1 view -0
 193              		.cfi_startproc
 194              		@ args = 0, pretend = 0, frame = 0
 195              		@ frame_needed = 0, uses_anonymous_args = 0
 196              		@ link register save eliminated.
 222:Drivers/STM32F1xx_HAL_Driver/Src/stm32f1xx_hal_dma.c ****   /* Check the DMA handle allocation */
 223:Drivers/STM32F1xx_HAL_Driver/Src/stm32f1xx_hal_dma.c ****   if(hdma == NULL)
 197              		.loc 1 223 3 view .LVU67
 198              		.loc 1 223 5 is_stmt 0 view .LVU68
 199 0000 0028     		cmp	r0, #0
ARM GAS  C:\Users\86184\AppData\Local\Temp\ccT1ePg0.s 			page 9


 200 0002 30D0     		beq	.L18
 224:Drivers/STM32F1xx_HAL_Driver/Src/stm32f1xx_hal_dma.c ****   {
 225:Drivers/STM32F1xx_HAL_Driver/Src/stm32f1xx_hal_dma.c ****     return HAL_ERROR;
 226:Drivers/STM32F1xx_HAL_Driver/Src/stm32f1xx_hal_dma.c ****   }
 227:Drivers/STM32F1xx_HAL_Driver/Src/stm32f1xx_hal_dma.c **** 
 228:Drivers/STM32F1xx_HAL_Driver/Src/stm32f1xx_hal_dma.c ****   /* Check the parameters */
 229:Drivers/STM32F1xx_HAL_Driver/Src/stm32f1xx_hal_dma.c ****   assert_param(IS_DMA_ALL_INSTANCE(hdma->Instance));
 230:Drivers/STM32F1xx_HAL_Driver/Src/stm32f1xx_hal_dma.c **** 
 231:Drivers/STM32F1xx_HAL_Driver/Src/stm32f1xx_hal_dma.c ****   /* Disable the selected DMA Channelx */
 232:Drivers/STM32F1xx_HAL_Driver/Src/stm32f1xx_hal_dma.c ****   __HAL_DMA_DISABLE(hdma);
 233:Drivers/STM32F1xx_HAL_Driver/Src/stm32f1xx_hal_dma.c **** 
 234:Drivers/STM32F1xx_HAL_Driver/Src/stm32f1xx_hal_dma.c ****   /* Reset DMA Channel control register */
 235:Drivers/STM32F1xx_HAL_Driver/Src/stm32f1xx_hal_dma.c ****   hdma->Instance->CCR  = 0U;
 201              		.loc 1 235 24 view .LVU69
 202 0004 0022     		movs	r2, #0
 232:Drivers/STM32F1xx_HAL_Driver/Src/stm32f1xx_hal_dma.c **** 
 203              		.loc 1 232 3 view .LVU70
 204 0006 0168     		ldr	r1, [r0]
 221:Drivers/STM32F1xx_HAL_Driver/Src/stm32f1xx_hal_dma.c ****   /* Check the DMA handle allocation */
 205              		.loc 1 221 1 view .LVU71
 206 0008 10B4     		push	{r4}
 207              	.LCFI2:
 208              		.cfi_def_cfa_offset 4
 209              		.cfi_offset 4, -4
 210 000a 0346     		mov	r3, r0
 229:Drivers/STM32F1xx_HAL_Driver/Src/stm32f1xx_hal_dma.c **** 
 211              		.loc 1 229 3 is_stmt 1 view .LVU72
 232:Drivers/STM32F1xx_HAL_Driver/Src/stm32f1xx_hal_dma.c **** 
 212              		.loc 1 232 3 view .LVU73
 236:Drivers/STM32F1xx_HAL_Driver/Src/stm32f1xx_hal_dma.c **** 
 237:Drivers/STM32F1xx_HAL_Driver/Src/stm32f1xx_hal_dma.c ****   /* Reset DMA Channel Number of Data to Transfer register */
 238:Drivers/STM32F1xx_HAL_Driver/Src/stm32f1xx_hal_dma.c ****   hdma->Instance->CNDTR = 0U;
 239:Drivers/STM32F1xx_HAL_Driver/Src/stm32f1xx_hal_dma.c **** 
 240:Drivers/STM32F1xx_HAL_Driver/Src/stm32f1xx_hal_dma.c ****   /* Reset DMA Channel peripheral address register */
 241:Drivers/STM32F1xx_HAL_Driver/Src/stm32f1xx_hal_dma.c ****   hdma->Instance->CPAR  = 0U;
 242:Drivers/STM32F1xx_HAL_Driver/Src/stm32f1xx_hal_dma.c **** 
 243:Drivers/STM32F1xx_HAL_Driver/Src/stm32f1xx_hal_dma.c ****   /* Reset DMA Channel memory address register */
 244:Drivers/STM32F1xx_HAL_Driver/Src/stm32f1xx_hal_dma.c ****   hdma->Instance->CMAR = 0U;
 245:Drivers/STM32F1xx_HAL_Driver/Src/stm32f1xx_hal_dma.c **** 
 246:Drivers/STM32F1xx_HAL_Driver/Src/stm32f1xx_hal_dma.c **** #if defined (DMA2)
 247:Drivers/STM32F1xx_HAL_Driver/Src/stm32f1xx_hal_dma.c ****   /* calculation of the channel index */
 248:Drivers/STM32F1xx_HAL_Driver/Src/stm32f1xx_hal_dma.c ****   if ((uint32_t)(hdma->Instance) < (uint32_t)(DMA2_Channel1))
 213              		.loc 1 248 6 is_stmt 0 view .LVU74
 214 000c 174C     		ldr	r4, .L24
 232:Drivers/STM32F1xx_HAL_Driver/Src/stm32f1xx_hal_dma.c **** 
 215              		.loc 1 232 3 view .LVU75
 216 000e 0868     		ldr	r0, [r1]
 217              	.LVL9:
 218              		.loc 1 248 6 view .LVU76
 219 0010 A142     		cmp	r1, r4
 232:Drivers/STM32F1xx_HAL_Driver/Src/stm32f1xx_hal_dma.c **** 
 220              		.loc 1 232 3 view .LVU77
 221 0012 20F00100 		bic	r0, r0, #1
 222 0016 0860     		str	r0, [r1]
 235:Drivers/STM32F1xx_HAL_Driver/Src/stm32f1xx_hal_dma.c **** 
 223              		.loc 1 235 3 is_stmt 1 view .LVU78
 235:Drivers/STM32F1xx_HAL_Driver/Src/stm32f1xx_hal_dma.c **** 
ARM GAS  C:\Users\86184\AppData\Local\Temp\ccT1ePg0.s 			page 10


 224              		.loc 1 235 24 is_stmt 0 view .LVU79
 225 0018 0A60     		str	r2, [r1]
 238:Drivers/STM32F1xx_HAL_Driver/Src/stm32f1xx_hal_dma.c **** 
 226              		.loc 1 238 3 is_stmt 1 view .LVU80
 238:Drivers/STM32F1xx_HAL_Driver/Src/stm32f1xx_hal_dma.c **** 
 227              		.loc 1 238 25 is_stmt 0 view .LVU81
 228 001a 4A60     		str	r2, [r1, #4]
 241:Drivers/STM32F1xx_HAL_Driver/Src/stm32f1xx_hal_dma.c **** 
 229              		.loc 1 241 3 is_stmt 1 view .LVU82
 241:Drivers/STM32F1xx_HAL_Driver/Src/stm32f1xx_hal_dma.c **** 
 230              		.loc 1 241 25 is_stmt 0 view .LVU83
 231 001c 8A60     		str	r2, [r1, #8]
 244:Drivers/STM32F1xx_HAL_Driver/Src/stm32f1xx_hal_dma.c **** 
 232              		.loc 1 244 3 is_stmt 1 view .LVU84
 244:Drivers/STM32F1xx_HAL_Driver/Src/stm32f1xx_hal_dma.c **** 
 233              		.loc 1 244 24 is_stmt 0 view .LVU85
 234 001e CA60     		str	r2, [r1, #12]
 235              		.loc 1 248 3 is_stmt 1 view .LVU86
 236              		.loc 1 248 6 is_stmt 0 view .LVU87
 237 0020 17D9     		bls	.L23
 249:Drivers/STM32F1xx_HAL_Driver/Src/stm32f1xx_hal_dma.c ****   {
 250:Drivers/STM32F1xx_HAL_Driver/Src/stm32f1xx_hal_dma.c ****     /* DMA1 */
 251:Drivers/STM32F1xx_HAL_Driver/Src/stm32f1xx_hal_dma.c ****     hdma->ChannelIndex = (((uint32_t)hdma->Instance - (uint32_t)DMA1_Channel1) / ((uint32_t)DMA1_Ch
 252:Drivers/STM32F1xx_HAL_Driver/Src/stm32f1xx_hal_dma.c ****     hdma->DmaBaseAddress = DMA1;
 253:Drivers/STM32F1xx_HAL_Driver/Src/stm32f1xx_hal_dma.c ****   }
 254:Drivers/STM32F1xx_HAL_Driver/Src/stm32f1xx_hal_dma.c ****   else
 255:Drivers/STM32F1xx_HAL_Driver/Src/stm32f1xx_hal_dma.c ****   {
 256:Drivers/STM32F1xx_HAL_Driver/Src/stm32f1xx_hal_dma.c ****     /* DMA2 */
 257:Drivers/STM32F1xx_HAL_Driver/Src/stm32f1xx_hal_dma.c ****     hdma->ChannelIndex = (((uint32_t)hdma->Instance - (uint32_t)DMA2_Channel1) / ((uint32_t)DMA2_Ch
 238              		.loc 1 257 5 is_stmt 1 view .LVU88
 239              		.loc 1 257 53 is_stmt 0 view .LVU89
 240 0022 134A     		ldr	r2, .L24+4
 241              		.loc 1 257 80 view .LVU90
 242 0024 1348     		ldr	r0, .L24+8
 243              		.loc 1 257 53 view .LVU91
 244 0026 0A44     		add	r2, r2, r1
 245              		.loc 1 257 80 view .LVU92
 246 0028 A0FB0202 		umull	r0, r2, r0, r2
 258:Drivers/STM32F1xx_HAL_Driver/Src/stm32f1xx_hal_dma.c ****     hdma->DmaBaseAddress = DMA2;
 247              		.loc 1 258 26 view .LVU93
 248 002c 124C     		ldr	r4, .L24+12
 257:Drivers/STM32F1xx_HAL_Driver/Src/stm32f1xx_hal_dma.c ****     hdma->DmaBaseAddress = DMA2;
 249              		.loc 1 257 80 view .LVU94
 250 002e 1209     		lsrs	r2, r2, #4
 257:Drivers/STM32F1xx_HAL_Driver/Src/stm32f1xx_hal_dma.c ****     hdma->DmaBaseAddress = DMA2;
 251              		.loc 1 257 135 view .LVU95
 252 0030 9200     		lsls	r2, r2, #2
 253              		.loc 1 258 5 is_stmt 1 view .LVU96
 254              	.L17:
 259:Drivers/STM32F1xx_HAL_Driver/Src/stm32f1xx_hal_dma.c ****   }
 260:Drivers/STM32F1xx_HAL_Driver/Src/stm32f1xx_hal_dma.c **** #else
 261:Drivers/STM32F1xx_HAL_Driver/Src/stm32f1xx_hal_dma.c ****   /* DMA1 */
 262:Drivers/STM32F1xx_HAL_Driver/Src/stm32f1xx_hal_dma.c ****   hdma->ChannelIndex = (((uint32_t)hdma->Instance - (uint32_t)DMA1_Channel1) / ((uint32_t)DMA1_Chan
 263:Drivers/STM32F1xx_HAL_Driver/Src/stm32f1xx_hal_dma.c ****   hdma->DmaBaseAddress = DMA1;
 264:Drivers/STM32F1xx_HAL_Driver/Src/stm32f1xx_hal_dma.c **** #endif /* DMA2 */
 265:Drivers/STM32F1xx_HAL_Driver/Src/stm32f1xx_hal_dma.c **** 
 266:Drivers/STM32F1xx_HAL_Driver/Src/stm32f1xx_hal_dma.c ****   /* Clear all flags */
ARM GAS  C:\Users\86184\AppData\Local\Temp\ccT1ePg0.s 			page 11


 267:Drivers/STM32F1xx_HAL_Driver/Src/stm32f1xx_hal_dma.c ****   hdma->DmaBaseAddress->IFCR = (DMA_ISR_GIF1 << (hdma->ChannelIndex));
 255              		.loc 1 267 46 is_stmt 0 view .LVU97
 256 0032 0120     		movs	r0, #1
 268:Drivers/STM32F1xx_HAL_Driver/Src/stm32f1xx_hal_dma.c **** 
 269:Drivers/STM32F1xx_HAL_Driver/Src/stm32f1xx_hal_dma.c ****   /* Clean all callbacks */
 270:Drivers/STM32F1xx_HAL_Driver/Src/stm32f1xx_hal_dma.c ****   hdma->XferCpltCallback = NULL;
 257              		.loc 1 270 26 view .LVU98
 258 0034 0021     		movs	r1, #0
 259 0036 C3E90F42 		strd	r4, r2, [r3, #60]
 267:Drivers/STM32F1xx_HAL_Driver/Src/stm32f1xx_hal_dma.c **** 
 260              		.loc 1 267 3 is_stmt 1 view .LVU99
 267:Drivers/STM32F1xx_HAL_Driver/Src/stm32f1xx_hal_dma.c **** 
 261              		.loc 1 267 46 is_stmt 0 view .LVU100
 262 003a 00FA02F2 		lsl	r2, r0, r2
 267:Drivers/STM32F1xx_HAL_Driver/Src/stm32f1xx_hal_dma.c **** 
 263              		.loc 1 267 30 view .LVU101
 264 003e 6260     		str	r2, [r4, #4]
 265              		.loc 1 270 3 is_stmt 1 view .LVU102
 271:Drivers/STM32F1xx_HAL_Driver/Src/stm32f1xx_hal_dma.c ****   hdma->XferHalfCpltCallback = NULL;
 272:Drivers/STM32F1xx_HAL_Driver/Src/stm32f1xx_hal_dma.c ****   hdma->XferErrorCallback = NULL;
 273:Drivers/STM32F1xx_HAL_Driver/Src/stm32f1xx_hal_dma.c ****   hdma->XferAbortCallback = NULL;
 274:Drivers/STM32F1xx_HAL_Driver/Src/stm32f1xx_hal_dma.c **** 
 275:Drivers/STM32F1xx_HAL_Driver/Src/stm32f1xx_hal_dma.c ****   /* Reset the error code */
 276:Drivers/STM32F1xx_HAL_Driver/Src/stm32f1xx_hal_dma.c ****   hdma->ErrorCode = HAL_DMA_ERROR_NONE;
 277:Drivers/STM32F1xx_HAL_Driver/Src/stm32f1xx_hal_dma.c **** 
 278:Drivers/STM32F1xx_HAL_Driver/Src/stm32f1xx_hal_dma.c ****   /* Reset the DMA state */
 279:Drivers/STM32F1xx_HAL_Driver/Src/stm32f1xx_hal_dma.c ****   hdma->State = HAL_DMA_STATE_RESET;
 280:Drivers/STM32F1xx_HAL_Driver/Src/stm32f1xx_hal_dma.c **** 
 281:Drivers/STM32F1xx_HAL_Driver/Src/stm32f1xx_hal_dma.c ****   /* Release Lock */
 282:Drivers/STM32F1xx_HAL_Driver/Src/stm32f1xx_hal_dma.c ****   __HAL_UNLOCK(hdma);
 266              		.loc 1 282 3 is_stmt 0 view .LVU103
 267 0040 1984     		strh	r1, [r3, #32]	@ movhi
 283:Drivers/STM32F1xx_HAL_Driver/Src/stm32f1xx_hal_dma.c **** 
 284:Drivers/STM32F1xx_HAL_Driver/Src/stm32f1xx_hal_dma.c ****   return HAL_OK;
 268              		.loc 1 284 10 view .LVU104
 269 0042 0846     		mov	r0, r1
 271:Drivers/STM32F1xx_HAL_Driver/Src/stm32f1xx_hal_dma.c ****   hdma->XferHalfCpltCallback = NULL;
 270              		.loc 1 271 30 view .LVU105
 271 0044 C3E90A11 		strd	r1, r1, [r3, #40]
 272:Drivers/STM32F1xx_HAL_Driver/Src/stm32f1xx_hal_dma.c ****   hdma->XferAbortCallback = NULL;
 272              		.loc 1 272 3 is_stmt 1 view .LVU106
 273:Drivers/STM32F1xx_HAL_Driver/Src/stm32f1xx_hal_dma.c **** 
 273              		.loc 1 273 27 is_stmt 0 view .LVU107
 274 0048 C3E90C11 		strd	r1, r1, [r3, #48]
 276:Drivers/STM32F1xx_HAL_Driver/Src/stm32f1xx_hal_dma.c **** 
 275              		.loc 1 276 3 is_stmt 1 view .LVU108
 285:Drivers/STM32F1xx_HAL_Driver/Src/stm32f1xx_hal_dma.c **** }
 276              		.loc 1 285 1 is_stmt 0 view .LVU109
 277 004c 10BC     		pop	{r4}
 278              	.LCFI3:
 279              		.cfi_remember_state
 280              		.cfi_restore 4
 281              		.cfi_def_cfa_offset 0
 276:Drivers/STM32F1xx_HAL_Driver/Src/stm32f1xx_hal_dma.c **** 
 282              		.loc 1 276 19 view .LVU110
 283 004e 9963     		str	r1, [r3, #56]
 279:Drivers/STM32F1xx_HAL_Driver/Src/stm32f1xx_hal_dma.c **** 
ARM GAS  C:\Users\86184\AppData\Local\Temp\ccT1ePg0.s 			page 12


 284              		.loc 1 279 3 is_stmt 1 view .LVU111
 282:Drivers/STM32F1xx_HAL_Driver/Src/stm32f1xx_hal_dma.c **** 
 285              		.loc 1 282 3 view .LVU112
 282:Drivers/STM32F1xx_HAL_Driver/Src/stm32f1xx_hal_dma.c **** 
 286              		.loc 1 282 3 view .LVU113
 282:Drivers/STM32F1xx_HAL_Driver/Src/stm32f1xx_hal_dma.c **** 
 287              		.loc 1 282 3 view .LVU114
 284:Drivers/STM32F1xx_HAL_Driver/Src/stm32f1xx_hal_dma.c **** }
 288              		.loc 1 284 3 view .LVU115
 289              		.loc 1 285 1 is_stmt 0 view .LVU116
 290 0050 7047     		bx	lr
 291              	.L23:
 292              	.LCFI4:
 293              		.cfi_restore_state
 251:Drivers/STM32F1xx_HAL_Driver/Src/stm32f1xx_hal_dma.c ****     hdma->DmaBaseAddress = DMA1;
 294              		.loc 1 251 5 is_stmt 1 view .LVU117
 251:Drivers/STM32F1xx_HAL_Driver/Src/stm32f1xx_hal_dma.c ****     hdma->DmaBaseAddress = DMA1;
 295              		.loc 1 251 53 is_stmt 0 view .LVU118
 296 0052 0A4A     		ldr	r2, .L24+16
 251:Drivers/STM32F1xx_HAL_Driver/Src/stm32f1xx_hal_dma.c ****     hdma->DmaBaseAddress = DMA1;
 297              		.loc 1 251 80 view .LVU119
 298 0054 0748     		ldr	r0, .L24+8
 251:Drivers/STM32F1xx_HAL_Driver/Src/stm32f1xx_hal_dma.c ****     hdma->DmaBaseAddress = DMA1;
 299              		.loc 1 251 53 view .LVU120
 300 0056 0A44     		add	r2, r2, r1
 251:Drivers/STM32F1xx_HAL_Driver/Src/stm32f1xx_hal_dma.c ****     hdma->DmaBaseAddress = DMA1;
 301              		.loc 1 251 80 view .LVU121
 302 0058 A0FB0202 		umull	r0, r2, r0, r2
 303 005c 1209     		lsrs	r2, r2, #4
 252:Drivers/STM32F1xx_HAL_Driver/Src/stm32f1xx_hal_dma.c ****   }
 304              		.loc 1 252 26 view .LVU122
 305 005e A4F20744 		subw	r4, r4, #1031
 251:Drivers/STM32F1xx_HAL_Driver/Src/stm32f1xx_hal_dma.c ****     hdma->DmaBaseAddress = DMA1;
 306              		.loc 1 251 135 view .LVU123
 307 0062 9200     		lsls	r2, r2, #2
 252:Drivers/STM32F1xx_HAL_Driver/Src/stm32f1xx_hal_dma.c ****   }
 308              		.loc 1 252 5 is_stmt 1 view .LVU124
 309 0064 E5E7     		b	.L17
 310              	.LVL10:
 311              	.L18:
 312              	.LCFI5:
 313              		.cfi_def_cfa_offset 0
 314              		.cfi_restore 4
 225:Drivers/STM32F1xx_HAL_Driver/Src/stm32f1xx_hal_dma.c ****   }
 315              		.loc 1 225 12 is_stmt 0 view .LVU125
 316 0066 0120     		movs	r0, #1
 317              	.LVL11:
 318              		.loc 1 285 1 view .LVU126
 319 0068 7047     		bx	lr
 320              	.L25:
 321 006a 00BF     		.align	2
 322              	.L24:
 323 006c 07040240 		.word	1073873927
 324 0070 F8FBFDBF 		.word	-1073873928
 325 0074 CDCCCCCC 		.word	-858993459
 326 0078 00040240 		.word	1073873920
 327 007c F8FFFDBF 		.word	-1073872904
ARM GAS  C:\Users\86184\AppData\Local\Temp\ccT1ePg0.s 			page 13


 328              		.cfi_endproc
 329              	.LFE66:
 331              		.section	.text.HAL_DMA_Start,"ax",%progbits
 332              		.align	1
 333              		.p2align 2,,3
 334              		.global	HAL_DMA_Start
 335              		.syntax unified
 336              		.thumb
 337              		.thumb_func
 339              	HAL_DMA_Start:
 340              	.LVL12:
 341              	.LFB67:
 286:Drivers/STM32F1xx_HAL_Driver/Src/stm32f1xx_hal_dma.c **** 
 287:Drivers/STM32F1xx_HAL_Driver/Src/stm32f1xx_hal_dma.c **** /**
 288:Drivers/STM32F1xx_HAL_Driver/Src/stm32f1xx_hal_dma.c ****   * @}
 289:Drivers/STM32F1xx_HAL_Driver/Src/stm32f1xx_hal_dma.c ****   */
 290:Drivers/STM32F1xx_HAL_Driver/Src/stm32f1xx_hal_dma.c **** 
 291:Drivers/STM32F1xx_HAL_Driver/Src/stm32f1xx_hal_dma.c **** /** @defgroup DMA_Exported_Functions_Group2 Input and Output operation functions
 292:Drivers/STM32F1xx_HAL_Driver/Src/stm32f1xx_hal_dma.c ****   *  @brief   Input and Output operation functions
 293:Drivers/STM32F1xx_HAL_Driver/Src/stm32f1xx_hal_dma.c ****   *
 294:Drivers/STM32F1xx_HAL_Driver/Src/stm32f1xx_hal_dma.c **** @verbatim
 295:Drivers/STM32F1xx_HAL_Driver/Src/stm32f1xx_hal_dma.c ****  ===============================================================================
 296:Drivers/STM32F1xx_HAL_Driver/Src/stm32f1xx_hal_dma.c ****                       #####  IO operation functions  #####
 297:Drivers/STM32F1xx_HAL_Driver/Src/stm32f1xx_hal_dma.c ****  ===============================================================================
 298:Drivers/STM32F1xx_HAL_Driver/Src/stm32f1xx_hal_dma.c ****     [..]  This section provides functions allowing to:
 299:Drivers/STM32F1xx_HAL_Driver/Src/stm32f1xx_hal_dma.c ****       (+) Configure the source, destination address and data length and Start DMA transfer
 300:Drivers/STM32F1xx_HAL_Driver/Src/stm32f1xx_hal_dma.c ****       (+) Configure the source, destination address and data length and
 301:Drivers/STM32F1xx_HAL_Driver/Src/stm32f1xx_hal_dma.c ****           Start DMA transfer with interrupt
 302:Drivers/STM32F1xx_HAL_Driver/Src/stm32f1xx_hal_dma.c ****       (+) Abort DMA transfer
 303:Drivers/STM32F1xx_HAL_Driver/Src/stm32f1xx_hal_dma.c ****       (+) Poll for transfer complete
 304:Drivers/STM32F1xx_HAL_Driver/Src/stm32f1xx_hal_dma.c ****       (+) Handle DMA interrupt request
 305:Drivers/STM32F1xx_HAL_Driver/Src/stm32f1xx_hal_dma.c **** 
 306:Drivers/STM32F1xx_HAL_Driver/Src/stm32f1xx_hal_dma.c **** @endverbatim
 307:Drivers/STM32F1xx_HAL_Driver/Src/stm32f1xx_hal_dma.c ****   * @{
 308:Drivers/STM32F1xx_HAL_Driver/Src/stm32f1xx_hal_dma.c ****   */
 309:Drivers/STM32F1xx_HAL_Driver/Src/stm32f1xx_hal_dma.c **** 
 310:Drivers/STM32F1xx_HAL_Driver/Src/stm32f1xx_hal_dma.c **** /**
 311:Drivers/STM32F1xx_HAL_Driver/Src/stm32f1xx_hal_dma.c ****   * @brief  Start the DMA Transfer.
 312:Drivers/STM32F1xx_HAL_Driver/Src/stm32f1xx_hal_dma.c ****   * @param  hdma: pointer to a DMA_HandleTypeDef structure that contains
 313:Drivers/STM32F1xx_HAL_Driver/Src/stm32f1xx_hal_dma.c ****   *               the configuration information for the specified DMA Channel.
 314:Drivers/STM32F1xx_HAL_Driver/Src/stm32f1xx_hal_dma.c ****   * @param  SrcAddress: The source memory Buffer address
 315:Drivers/STM32F1xx_HAL_Driver/Src/stm32f1xx_hal_dma.c ****   * @param  DstAddress: The destination memory Buffer address
 316:Drivers/STM32F1xx_HAL_Driver/Src/stm32f1xx_hal_dma.c ****   * @param  DataLength: The length of data to be transferred from source to destination
 317:Drivers/STM32F1xx_HAL_Driver/Src/stm32f1xx_hal_dma.c ****   * @retval HAL status
 318:Drivers/STM32F1xx_HAL_Driver/Src/stm32f1xx_hal_dma.c ****   */
 319:Drivers/STM32F1xx_HAL_Driver/Src/stm32f1xx_hal_dma.c **** HAL_StatusTypeDef HAL_DMA_Start(DMA_HandleTypeDef *hdma, uint32_t SrcAddress, uint32_t DstAddress, 
 320:Drivers/STM32F1xx_HAL_Driver/Src/stm32f1xx_hal_dma.c **** {
 342              		.loc 1 320 1 is_stmt 1 view -0
 343              		.cfi_startproc
 344              		@ args = 0, pretend = 0, frame = 0
 345              		@ frame_needed = 0, uses_anonymous_args = 0
 346              		@ link register save eliminated.
 321:Drivers/STM32F1xx_HAL_Driver/Src/stm32f1xx_hal_dma.c ****   HAL_StatusTypeDef status = HAL_OK;
 347              		.loc 1 321 3 view .LVU128
 322:Drivers/STM32F1xx_HAL_Driver/Src/stm32f1xx_hal_dma.c **** 
 323:Drivers/STM32F1xx_HAL_Driver/Src/stm32f1xx_hal_dma.c ****   /* Check the parameters */
 324:Drivers/STM32F1xx_HAL_Driver/Src/stm32f1xx_hal_dma.c ****   assert_param(IS_DMA_BUFFER_SIZE(DataLength));
ARM GAS  C:\Users\86184\AppData\Local\Temp\ccT1ePg0.s 			page 14


 348              		.loc 1 324 3 view .LVU129
 325:Drivers/STM32F1xx_HAL_Driver/Src/stm32f1xx_hal_dma.c **** 
 326:Drivers/STM32F1xx_HAL_Driver/Src/stm32f1xx_hal_dma.c ****   /* Process locked */
 327:Drivers/STM32F1xx_HAL_Driver/Src/stm32f1xx_hal_dma.c ****   __HAL_LOCK(hdma);
 349              		.loc 1 327 3 view .LVU130
 350              		.loc 1 327 3 view .LVU131
 320:Drivers/STM32F1xx_HAL_Driver/Src/stm32f1xx_hal_dma.c ****   HAL_StatusTypeDef status = HAL_OK;
 351              		.loc 1 320 1 is_stmt 0 view .LVU132
 352 0000 70B4     		push	{r4, r5, r6}
 353              	.LCFI6:
 354              		.cfi_def_cfa_offset 12
 355              		.cfi_offset 4, -12
 356              		.cfi_offset 5, -8
 357              		.cfi_offset 6, -4
 358              		.loc 1 327 3 view .LVU133
 359 0002 90F82040 		ldrb	r4, [r0, #32]	@ zero_extendqisi2
 360 0006 012C     		cmp	r4, #1
 361 0008 09D0     		beq	.L27
 362              		.loc 1 327 3 is_stmt 1 discriminator 2 view .LVU134
 363 000a 0124     		movs	r4, #1
 328:Drivers/STM32F1xx_HAL_Driver/Src/stm32f1xx_hal_dma.c **** 
 329:Drivers/STM32F1xx_HAL_Driver/Src/stm32f1xx_hal_dma.c ****   if(HAL_DMA_STATE_READY == hdma->State)
 364              		.loc 1 329 5 is_stmt 0 discriminator 2 view .LVU135
 365 000c 90F821C0 		ldrb	ip, [r0, #33]	@ zero_extendqisi2
 327:Drivers/STM32F1xx_HAL_Driver/Src/stm32f1xx_hal_dma.c **** 
 366              		.loc 1 327 3 discriminator 2 view .LVU136
 367 0010 80F82040 		strb	r4, [r0, #32]
 327:Drivers/STM32F1xx_HAL_Driver/Src/stm32f1xx_hal_dma.c **** 
 368              		.loc 1 327 3 is_stmt 1 discriminator 2 view .LVU137
 369              		.loc 1 329 3 discriminator 2 view .LVU138
 370              		.loc 1 329 5 is_stmt 0 discriminator 2 view .LVU139
 371 0014 A445     		cmp	ip, r4
 372 0016 05D0     		beq	.L36
 330:Drivers/STM32F1xx_HAL_Driver/Src/stm32f1xx_hal_dma.c ****   {
 331:Drivers/STM32F1xx_HAL_Driver/Src/stm32f1xx_hal_dma.c ****     /* Change DMA peripheral state */
 332:Drivers/STM32F1xx_HAL_Driver/Src/stm32f1xx_hal_dma.c ****     hdma->State = HAL_DMA_STATE_BUSY;
 333:Drivers/STM32F1xx_HAL_Driver/Src/stm32f1xx_hal_dma.c ****     hdma->ErrorCode = HAL_DMA_ERROR_NONE;
 334:Drivers/STM32F1xx_HAL_Driver/Src/stm32f1xx_hal_dma.c ****             
 335:Drivers/STM32F1xx_HAL_Driver/Src/stm32f1xx_hal_dma.c ****     /* Disable the peripheral */
 336:Drivers/STM32F1xx_HAL_Driver/Src/stm32f1xx_hal_dma.c ****     __HAL_DMA_DISABLE(hdma);
 337:Drivers/STM32F1xx_HAL_Driver/Src/stm32f1xx_hal_dma.c ****     
 338:Drivers/STM32F1xx_HAL_Driver/Src/stm32f1xx_hal_dma.c ****     /* Configure the source, destination address and the data length & clear flags*/
 339:Drivers/STM32F1xx_HAL_Driver/Src/stm32f1xx_hal_dma.c ****     DMA_SetConfig(hdma, SrcAddress, DstAddress, DataLength);
 340:Drivers/STM32F1xx_HAL_Driver/Src/stm32f1xx_hal_dma.c ****     
 341:Drivers/STM32F1xx_HAL_Driver/Src/stm32f1xx_hal_dma.c ****     /* Enable the Peripheral */
 342:Drivers/STM32F1xx_HAL_Driver/Src/stm32f1xx_hal_dma.c ****     __HAL_DMA_ENABLE(hdma);
 343:Drivers/STM32F1xx_HAL_Driver/Src/stm32f1xx_hal_dma.c ****   }
 344:Drivers/STM32F1xx_HAL_Driver/Src/stm32f1xx_hal_dma.c ****   else
 345:Drivers/STM32F1xx_HAL_Driver/Src/stm32f1xx_hal_dma.c ****   {
 346:Drivers/STM32F1xx_HAL_Driver/Src/stm32f1xx_hal_dma.c ****    /* Process Unlocked */
 347:Drivers/STM32F1xx_HAL_Driver/Src/stm32f1xx_hal_dma.c ****    __HAL_UNLOCK(hdma);  
 373              		.loc 1 347 4 is_stmt 1 view .LVU140
 374              		.loc 1 347 4 view .LVU141
 375 0018 0023     		movs	r3, #0
 376              	.LVL13:
 377              		.loc 1 347 4 is_stmt 0 view .LVU142
 378 001a 80F82030 		strb	r3, [r0, #32]
ARM GAS  C:\Users\86184\AppData\Local\Temp\ccT1ePg0.s 			page 15


 379              		.loc 1 347 4 is_stmt 1 view .LVU143
 348:Drivers/STM32F1xx_HAL_Driver/Src/stm32f1xx_hal_dma.c ****    status = HAL_BUSY;
 380              		.loc 1 348 4 view .LVU144
 381              	.LVL14:
 382              	.L27:
 327:Drivers/STM32F1xx_HAL_Driver/Src/stm32f1xx_hal_dma.c **** 
 383              		.loc 1 327 3 is_stmt 0 view .LVU145
 384 001e 0220     		movs	r0, #2
 385              	.LVL15:
 349:Drivers/STM32F1xx_HAL_Driver/Src/stm32f1xx_hal_dma.c ****   }  
 350:Drivers/STM32F1xx_HAL_Driver/Src/stm32f1xx_hal_dma.c ****   return status;
 351:Drivers/STM32F1xx_HAL_Driver/Src/stm32f1xx_hal_dma.c **** }
 386              		.loc 1 351 1 view .LVU146
 387 0020 70BC     		pop	{r4, r5, r6}
 388              	.LCFI7:
 389              		.cfi_remember_state
 390              		.cfi_restore 6
 391              		.cfi_restore 5
 392              		.cfi_restore 4
 393              		.cfi_def_cfa_offset 0
 394 0022 7047     		bx	lr
 395              	.LVL16:
 396              	.L36:
 397              	.LCFI8:
 398              		.cfi_restore_state
 332:Drivers/STM32F1xx_HAL_Driver/Src/stm32f1xx_hal_dma.c ****     hdma->ErrorCode = HAL_DMA_ERROR_NONE;
 399              		.loc 1 332 5 is_stmt 1 view .LVU147
 332:Drivers/STM32F1xx_HAL_Driver/Src/stm32f1xx_hal_dma.c ****     hdma->ErrorCode = HAL_DMA_ERROR_NONE;
 400              		.loc 1 332 17 is_stmt 0 view .LVU148
 401 0024 0224     		movs	r4, #2
 402 0026 80F82140 		strb	r4, [r0, #33]
 333:Drivers/STM32F1xx_HAL_Driver/Src/stm32f1xx_hal_dma.c ****             
 403              		.loc 1 333 5 is_stmt 1 view .LVU149
 333:Drivers/STM32F1xx_HAL_Driver/Src/stm32f1xx_hal_dma.c ****             
 404              		.loc 1 333 21 is_stmt 0 view .LVU150
 405 002a 0024     		movs	r4, #0
 336:Drivers/STM32F1xx_HAL_Driver/Src/stm32f1xx_hal_dma.c ****     
 406              		.loc 1 336 5 view .LVU151
 407 002c 0568     		ldr	r5, [r0]
 333:Drivers/STM32F1xx_HAL_Driver/Src/stm32f1xx_hal_dma.c ****             
 408              		.loc 1 333 21 view .LVU152
 409 002e 8463     		str	r4, [r0, #56]
 336:Drivers/STM32F1xx_HAL_Driver/Src/stm32f1xx_hal_dma.c ****     
 410              		.loc 1 336 5 is_stmt 1 view .LVU153
 411 0030 2E68     		ldr	r6, [r5]
 412              	.LBB6:
 413              	.LBB7:
 352:Drivers/STM32F1xx_HAL_Driver/Src/stm32f1xx_hal_dma.c **** 
 353:Drivers/STM32F1xx_HAL_Driver/Src/stm32f1xx_hal_dma.c **** /**
 354:Drivers/STM32F1xx_HAL_Driver/Src/stm32f1xx_hal_dma.c ****   * @brief  Start the DMA Transfer with interrupt enabled.
 355:Drivers/STM32F1xx_HAL_Driver/Src/stm32f1xx_hal_dma.c ****   * @param  hdma: pointer to a DMA_HandleTypeDef structure that contains
 356:Drivers/STM32F1xx_HAL_Driver/Src/stm32f1xx_hal_dma.c ****   *               the configuration information for the specified DMA Channel.
 357:Drivers/STM32F1xx_HAL_Driver/Src/stm32f1xx_hal_dma.c ****   * @param  SrcAddress: The source memory Buffer address
 358:Drivers/STM32F1xx_HAL_Driver/Src/stm32f1xx_hal_dma.c ****   * @param  DstAddress: The destination memory Buffer address
 359:Drivers/STM32F1xx_HAL_Driver/Src/stm32f1xx_hal_dma.c ****   * @param  DataLength: The length of data to be transferred from source to destination
 360:Drivers/STM32F1xx_HAL_Driver/Src/stm32f1xx_hal_dma.c ****   * @retval HAL status
 361:Drivers/STM32F1xx_HAL_Driver/Src/stm32f1xx_hal_dma.c ****   */
ARM GAS  C:\Users\86184\AppData\Local\Temp\ccT1ePg0.s 			page 16


 362:Drivers/STM32F1xx_HAL_Driver/Src/stm32f1xx_hal_dma.c **** HAL_StatusTypeDef HAL_DMA_Start_IT(DMA_HandleTypeDef *hdma, uint32_t SrcAddress, uint32_t DstAddres
 363:Drivers/STM32F1xx_HAL_Driver/Src/stm32f1xx_hal_dma.c **** {
 364:Drivers/STM32F1xx_HAL_Driver/Src/stm32f1xx_hal_dma.c ****   HAL_StatusTypeDef status = HAL_OK;
 365:Drivers/STM32F1xx_HAL_Driver/Src/stm32f1xx_hal_dma.c **** 
 366:Drivers/STM32F1xx_HAL_Driver/Src/stm32f1xx_hal_dma.c ****   /* Check the parameters */
 367:Drivers/STM32F1xx_HAL_Driver/Src/stm32f1xx_hal_dma.c ****   assert_param(IS_DMA_BUFFER_SIZE(DataLength));
 368:Drivers/STM32F1xx_HAL_Driver/Src/stm32f1xx_hal_dma.c **** 
 369:Drivers/STM32F1xx_HAL_Driver/Src/stm32f1xx_hal_dma.c ****   /* Process locked */
 370:Drivers/STM32F1xx_HAL_Driver/Src/stm32f1xx_hal_dma.c ****   __HAL_LOCK(hdma);
 371:Drivers/STM32F1xx_HAL_Driver/Src/stm32f1xx_hal_dma.c ****   
 372:Drivers/STM32F1xx_HAL_Driver/Src/stm32f1xx_hal_dma.c ****   if(HAL_DMA_STATE_READY == hdma->State)
 373:Drivers/STM32F1xx_HAL_Driver/Src/stm32f1xx_hal_dma.c ****   {
 374:Drivers/STM32F1xx_HAL_Driver/Src/stm32f1xx_hal_dma.c ****     /* Change DMA peripheral state */
 375:Drivers/STM32F1xx_HAL_Driver/Src/stm32f1xx_hal_dma.c ****     hdma->State = HAL_DMA_STATE_BUSY;
 376:Drivers/STM32F1xx_HAL_Driver/Src/stm32f1xx_hal_dma.c ****     hdma->ErrorCode = HAL_DMA_ERROR_NONE;
 377:Drivers/STM32F1xx_HAL_Driver/Src/stm32f1xx_hal_dma.c ****     
 378:Drivers/STM32F1xx_HAL_Driver/Src/stm32f1xx_hal_dma.c ****     /* Disable the peripheral */
 379:Drivers/STM32F1xx_HAL_Driver/Src/stm32f1xx_hal_dma.c ****     __HAL_DMA_DISABLE(hdma);
 380:Drivers/STM32F1xx_HAL_Driver/Src/stm32f1xx_hal_dma.c ****     
 381:Drivers/STM32F1xx_HAL_Driver/Src/stm32f1xx_hal_dma.c ****     /* Configure the source, destination address and the data length & clear flags*/
 382:Drivers/STM32F1xx_HAL_Driver/Src/stm32f1xx_hal_dma.c ****     DMA_SetConfig(hdma, SrcAddress, DstAddress, DataLength);
 383:Drivers/STM32F1xx_HAL_Driver/Src/stm32f1xx_hal_dma.c ****     
 384:Drivers/STM32F1xx_HAL_Driver/Src/stm32f1xx_hal_dma.c ****     /* Enable the transfer complete interrupt */
 385:Drivers/STM32F1xx_HAL_Driver/Src/stm32f1xx_hal_dma.c ****     /* Enable the transfer Error interrupt */
 386:Drivers/STM32F1xx_HAL_Driver/Src/stm32f1xx_hal_dma.c ****     if(NULL != hdma->XferHalfCpltCallback)
 387:Drivers/STM32F1xx_HAL_Driver/Src/stm32f1xx_hal_dma.c ****     {
 388:Drivers/STM32F1xx_HAL_Driver/Src/stm32f1xx_hal_dma.c ****       /* Enable the Half transfer complete interrupt as well */
 389:Drivers/STM32F1xx_HAL_Driver/Src/stm32f1xx_hal_dma.c ****       __HAL_DMA_ENABLE_IT(hdma, (DMA_IT_TC | DMA_IT_HT | DMA_IT_TE));
 390:Drivers/STM32F1xx_HAL_Driver/Src/stm32f1xx_hal_dma.c ****     }
 391:Drivers/STM32F1xx_HAL_Driver/Src/stm32f1xx_hal_dma.c ****     else
 392:Drivers/STM32F1xx_HAL_Driver/Src/stm32f1xx_hal_dma.c ****     {
 393:Drivers/STM32F1xx_HAL_Driver/Src/stm32f1xx_hal_dma.c ****       __HAL_DMA_DISABLE_IT(hdma, DMA_IT_HT);
 394:Drivers/STM32F1xx_HAL_Driver/Src/stm32f1xx_hal_dma.c ****       __HAL_DMA_ENABLE_IT(hdma, (DMA_IT_TC | DMA_IT_TE));
 395:Drivers/STM32F1xx_HAL_Driver/Src/stm32f1xx_hal_dma.c ****     }
 396:Drivers/STM32F1xx_HAL_Driver/Src/stm32f1xx_hal_dma.c ****     /* Enable the Peripheral */
 397:Drivers/STM32F1xx_HAL_Driver/Src/stm32f1xx_hal_dma.c ****     __HAL_DMA_ENABLE(hdma);
 398:Drivers/STM32F1xx_HAL_Driver/Src/stm32f1xx_hal_dma.c ****   }
 399:Drivers/STM32F1xx_HAL_Driver/Src/stm32f1xx_hal_dma.c ****   else
 400:Drivers/STM32F1xx_HAL_Driver/Src/stm32f1xx_hal_dma.c ****   {      
 401:Drivers/STM32F1xx_HAL_Driver/Src/stm32f1xx_hal_dma.c ****     /* Process Unlocked */
 402:Drivers/STM32F1xx_HAL_Driver/Src/stm32f1xx_hal_dma.c ****     __HAL_UNLOCK(hdma); 
 403:Drivers/STM32F1xx_HAL_Driver/Src/stm32f1xx_hal_dma.c **** 
 404:Drivers/STM32F1xx_HAL_Driver/Src/stm32f1xx_hal_dma.c ****     /* Remain BUSY */
 405:Drivers/STM32F1xx_HAL_Driver/Src/stm32f1xx_hal_dma.c ****     status = HAL_BUSY;
 406:Drivers/STM32F1xx_HAL_Driver/Src/stm32f1xx_hal_dma.c ****   }    
 407:Drivers/STM32F1xx_HAL_Driver/Src/stm32f1xx_hal_dma.c ****   return status;
 408:Drivers/STM32F1xx_HAL_Driver/Src/stm32f1xx_hal_dma.c **** }
 409:Drivers/STM32F1xx_HAL_Driver/Src/stm32f1xx_hal_dma.c **** 
 410:Drivers/STM32F1xx_HAL_Driver/Src/stm32f1xx_hal_dma.c **** /**
 411:Drivers/STM32F1xx_HAL_Driver/Src/stm32f1xx_hal_dma.c ****   * @brief  Abort the DMA Transfer.
 412:Drivers/STM32F1xx_HAL_Driver/Src/stm32f1xx_hal_dma.c ****   * @param  hdma: pointer to a DMA_HandleTypeDef structure that contains
 413:Drivers/STM32F1xx_HAL_Driver/Src/stm32f1xx_hal_dma.c ****   *               the configuration information for the specified DMA Channel.
 414:Drivers/STM32F1xx_HAL_Driver/Src/stm32f1xx_hal_dma.c ****   * @retval HAL status
 415:Drivers/STM32F1xx_HAL_Driver/Src/stm32f1xx_hal_dma.c ****   */
 416:Drivers/STM32F1xx_HAL_Driver/Src/stm32f1xx_hal_dma.c **** HAL_StatusTypeDef HAL_DMA_Abort(DMA_HandleTypeDef *hdma)
 417:Drivers/STM32F1xx_HAL_Driver/Src/stm32f1xx_hal_dma.c **** {
 418:Drivers/STM32F1xx_HAL_Driver/Src/stm32f1xx_hal_dma.c ****   HAL_StatusTypeDef status = HAL_OK;
ARM GAS  C:\Users\86184\AppData\Local\Temp\ccT1ePg0.s 			page 17


 419:Drivers/STM32F1xx_HAL_Driver/Src/stm32f1xx_hal_dma.c ****   
 420:Drivers/STM32F1xx_HAL_Driver/Src/stm32f1xx_hal_dma.c ****   if(hdma->State != HAL_DMA_STATE_BUSY)
 421:Drivers/STM32F1xx_HAL_Driver/Src/stm32f1xx_hal_dma.c ****   {
 422:Drivers/STM32F1xx_HAL_Driver/Src/stm32f1xx_hal_dma.c ****     /* no transfer ongoing */
 423:Drivers/STM32F1xx_HAL_Driver/Src/stm32f1xx_hal_dma.c ****     hdma->ErrorCode = HAL_DMA_ERROR_NO_XFER;
 424:Drivers/STM32F1xx_HAL_Driver/Src/stm32f1xx_hal_dma.c ****     
 425:Drivers/STM32F1xx_HAL_Driver/Src/stm32f1xx_hal_dma.c ****     /* Process Unlocked */
 426:Drivers/STM32F1xx_HAL_Driver/Src/stm32f1xx_hal_dma.c ****     __HAL_UNLOCK(hdma);
 427:Drivers/STM32F1xx_HAL_Driver/Src/stm32f1xx_hal_dma.c ****     
 428:Drivers/STM32F1xx_HAL_Driver/Src/stm32f1xx_hal_dma.c ****     return HAL_ERROR;
 429:Drivers/STM32F1xx_HAL_Driver/Src/stm32f1xx_hal_dma.c ****   }
 430:Drivers/STM32F1xx_HAL_Driver/Src/stm32f1xx_hal_dma.c ****   else
 431:Drivers/STM32F1xx_HAL_Driver/Src/stm32f1xx_hal_dma.c **** 
 432:Drivers/STM32F1xx_HAL_Driver/Src/stm32f1xx_hal_dma.c ****   {
 433:Drivers/STM32F1xx_HAL_Driver/Src/stm32f1xx_hal_dma.c ****     /* Disable DMA IT */
 434:Drivers/STM32F1xx_HAL_Driver/Src/stm32f1xx_hal_dma.c ****     __HAL_DMA_DISABLE_IT(hdma, (DMA_IT_TC | DMA_IT_HT | DMA_IT_TE));
 435:Drivers/STM32F1xx_HAL_Driver/Src/stm32f1xx_hal_dma.c ****       
 436:Drivers/STM32F1xx_HAL_Driver/Src/stm32f1xx_hal_dma.c ****     /* Disable the channel */
 437:Drivers/STM32F1xx_HAL_Driver/Src/stm32f1xx_hal_dma.c ****     __HAL_DMA_DISABLE(hdma);
 438:Drivers/STM32F1xx_HAL_Driver/Src/stm32f1xx_hal_dma.c ****       
 439:Drivers/STM32F1xx_HAL_Driver/Src/stm32f1xx_hal_dma.c ****     /* Clear all flags */
 440:Drivers/STM32F1xx_HAL_Driver/Src/stm32f1xx_hal_dma.c ****     hdma->DmaBaseAddress->IFCR = (DMA_ISR_GIF1 << hdma->ChannelIndex);
 441:Drivers/STM32F1xx_HAL_Driver/Src/stm32f1xx_hal_dma.c ****   }
 442:Drivers/STM32F1xx_HAL_Driver/Src/stm32f1xx_hal_dma.c ****   /* Change the DMA state */
 443:Drivers/STM32F1xx_HAL_Driver/Src/stm32f1xx_hal_dma.c ****   hdma->State = HAL_DMA_STATE_READY;
 444:Drivers/STM32F1xx_HAL_Driver/Src/stm32f1xx_hal_dma.c **** 
 445:Drivers/STM32F1xx_HAL_Driver/Src/stm32f1xx_hal_dma.c ****   /* Process Unlocked */
 446:Drivers/STM32F1xx_HAL_Driver/Src/stm32f1xx_hal_dma.c ****   __HAL_UNLOCK(hdma);      
 447:Drivers/STM32F1xx_HAL_Driver/Src/stm32f1xx_hal_dma.c ****   
 448:Drivers/STM32F1xx_HAL_Driver/Src/stm32f1xx_hal_dma.c ****   return status; 
 449:Drivers/STM32F1xx_HAL_Driver/Src/stm32f1xx_hal_dma.c **** }
 450:Drivers/STM32F1xx_HAL_Driver/Src/stm32f1xx_hal_dma.c **** 
 451:Drivers/STM32F1xx_HAL_Driver/Src/stm32f1xx_hal_dma.c **** /**
 452:Drivers/STM32F1xx_HAL_Driver/Src/stm32f1xx_hal_dma.c ****   * @brief  Aborts the DMA Transfer in Interrupt mode.
 453:Drivers/STM32F1xx_HAL_Driver/Src/stm32f1xx_hal_dma.c ****   * @param  hdma  : pointer to a DMA_HandleTypeDef structure that contains
 454:Drivers/STM32F1xx_HAL_Driver/Src/stm32f1xx_hal_dma.c ****   *                 the configuration information for the specified DMA Channel.
 455:Drivers/STM32F1xx_HAL_Driver/Src/stm32f1xx_hal_dma.c ****   * @retval HAL status
 456:Drivers/STM32F1xx_HAL_Driver/Src/stm32f1xx_hal_dma.c ****   */
 457:Drivers/STM32F1xx_HAL_Driver/Src/stm32f1xx_hal_dma.c **** HAL_StatusTypeDef HAL_DMA_Abort_IT(DMA_HandleTypeDef *hdma)
 458:Drivers/STM32F1xx_HAL_Driver/Src/stm32f1xx_hal_dma.c **** {  
 459:Drivers/STM32F1xx_HAL_Driver/Src/stm32f1xx_hal_dma.c ****   HAL_StatusTypeDef status = HAL_OK;
 460:Drivers/STM32F1xx_HAL_Driver/Src/stm32f1xx_hal_dma.c ****   
 461:Drivers/STM32F1xx_HAL_Driver/Src/stm32f1xx_hal_dma.c ****   if(HAL_DMA_STATE_BUSY != hdma->State)
 462:Drivers/STM32F1xx_HAL_Driver/Src/stm32f1xx_hal_dma.c ****   {
 463:Drivers/STM32F1xx_HAL_Driver/Src/stm32f1xx_hal_dma.c ****     /* no transfer ongoing */
 464:Drivers/STM32F1xx_HAL_Driver/Src/stm32f1xx_hal_dma.c ****     hdma->ErrorCode = HAL_DMA_ERROR_NO_XFER;
 465:Drivers/STM32F1xx_HAL_Driver/Src/stm32f1xx_hal_dma.c ****         
 466:Drivers/STM32F1xx_HAL_Driver/Src/stm32f1xx_hal_dma.c ****     status = HAL_ERROR;
 467:Drivers/STM32F1xx_HAL_Driver/Src/stm32f1xx_hal_dma.c ****   }
 468:Drivers/STM32F1xx_HAL_Driver/Src/stm32f1xx_hal_dma.c ****   else
 469:Drivers/STM32F1xx_HAL_Driver/Src/stm32f1xx_hal_dma.c ****   { 
 470:Drivers/STM32F1xx_HAL_Driver/Src/stm32f1xx_hal_dma.c ****     /* Disable DMA IT */
 471:Drivers/STM32F1xx_HAL_Driver/Src/stm32f1xx_hal_dma.c ****     __HAL_DMA_DISABLE_IT(hdma, (DMA_IT_TC | DMA_IT_HT | DMA_IT_TE));
 472:Drivers/STM32F1xx_HAL_Driver/Src/stm32f1xx_hal_dma.c **** 
 473:Drivers/STM32F1xx_HAL_Driver/Src/stm32f1xx_hal_dma.c ****     /* Disable the channel */
 474:Drivers/STM32F1xx_HAL_Driver/Src/stm32f1xx_hal_dma.c ****     __HAL_DMA_DISABLE(hdma);
 475:Drivers/STM32F1xx_HAL_Driver/Src/stm32f1xx_hal_dma.c **** 
ARM GAS  C:\Users\86184\AppData\Local\Temp\ccT1ePg0.s 			page 18


 476:Drivers/STM32F1xx_HAL_Driver/Src/stm32f1xx_hal_dma.c ****     /* Clear all flags */
 477:Drivers/STM32F1xx_HAL_Driver/Src/stm32f1xx_hal_dma.c ****     __HAL_DMA_CLEAR_FLAG(hdma, __HAL_DMA_GET_GI_FLAG_INDEX(hdma));
 478:Drivers/STM32F1xx_HAL_Driver/Src/stm32f1xx_hal_dma.c **** 
 479:Drivers/STM32F1xx_HAL_Driver/Src/stm32f1xx_hal_dma.c ****     /* Change the DMA state */
 480:Drivers/STM32F1xx_HAL_Driver/Src/stm32f1xx_hal_dma.c ****     hdma->State = HAL_DMA_STATE_READY;
 481:Drivers/STM32F1xx_HAL_Driver/Src/stm32f1xx_hal_dma.c **** 
 482:Drivers/STM32F1xx_HAL_Driver/Src/stm32f1xx_hal_dma.c ****     /* Process Unlocked */
 483:Drivers/STM32F1xx_HAL_Driver/Src/stm32f1xx_hal_dma.c ****     __HAL_UNLOCK(hdma);
 484:Drivers/STM32F1xx_HAL_Driver/Src/stm32f1xx_hal_dma.c **** 
 485:Drivers/STM32F1xx_HAL_Driver/Src/stm32f1xx_hal_dma.c ****     /* Call User Abort callback */
 486:Drivers/STM32F1xx_HAL_Driver/Src/stm32f1xx_hal_dma.c ****     if(hdma->XferAbortCallback != NULL)
 487:Drivers/STM32F1xx_HAL_Driver/Src/stm32f1xx_hal_dma.c ****     {
 488:Drivers/STM32F1xx_HAL_Driver/Src/stm32f1xx_hal_dma.c ****       hdma->XferAbortCallback(hdma);
 489:Drivers/STM32F1xx_HAL_Driver/Src/stm32f1xx_hal_dma.c ****     } 
 490:Drivers/STM32F1xx_HAL_Driver/Src/stm32f1xx_hal_dma.c ****   }
 491:Drivers/STM32F1xx_HAL_Driver/Src/stm32f1xx_hal_dma.c ****   return status;
 492:Drivers/STM32F1xx_HAL_Driver/Src/stm32f1xx_hal_dma.c **** }
 493:Drivers/STM32F1xx_HAL_Driver/Src/stm32f1xx_hal_dma.c **** 
 494:Drivers/STM32F1xx_HAL_Driver/Src/stm32f1xx_hal_dma.c **** /**
 495:Drivers/STM32F1xx_HAL_Driver/Src/stm32f1xx_hal_dma.c ****   * @brief  Polling for transfer complete.
 496:Drivers/STM32F1xx_HAL_Driver/Src/stm32f1xx_hal_dma.c ****   * @param  hdma:    pointer to a DMA_HandleTypeDef structure that contains
 497:Drivers/STM32F1xx_HAL_Driver/Src/stm32f1xx_hal_dma.c ****   *                  the configuration information for the specified DMA Channel.
 498:Drivers/STM32F1xx_HAL_Driver/Src/stm32f1xx_hal_dma.c ****   * @param  CompleteLevel: Specifies the DMA level complete.
 499:Drivers/STM32F1xx_HAL_Driver/Src/stm32f1xx_hal_dma.c ****   * @param  Timeout:       Timeout duration.
 500:Drivers/STM32F1xx_HAL_Driver/Src/stm32f1xx_hal_dma.c ****   * @retval HAL status
 501:Drivers/STM32F1xx_HAL_Driver/Src/stm32f1xx_hal_dma.c ****   */
 502:Drivers/STM32F1xx_HAL_Driver/Src/stm32f1xx_hal_dma.c **** HAL_StatusTypeDef HAL_DMA_PollForTransfer(DMA_HandleTypeDef *hdma, uint32_t CompleteLevel, uint32_t
 503:Drivers/STM32F1xx_HAL_Driver/Src/stm32f1xx_hal_dma.c **** {
 504:Drivers/STM32F1xx_HAL_Driver/Src/stm32f1xx_hal_dma.c ****   uint32_t temp;
 505:Drivers/STM32F1xx_HAL_Driver/Src/stm32f1xx_hal_dma.c ****   uint32_t tickstart = 0U;
 506:Drivers/STM32F1xx_HAL_Driver/Src/stm32f1xx_hal_dma.c **** 
 507:Drivers/STM32F1xx_HAL_Driver/Src/stm32f1xx_hal_dma.c ****   if(HAL_DMA_STATE_BUSY != hdma->State)
 508:Drivers/STM32F1xx_HAL_Driver/Src/stm32f1xx_hal_dma.c ****   {
 509:Drivers/STM32F1xx_HAL_Driver/Src/stm32f1xx_hal_dma.c ****     /* no transfer ongoing */
 510:Drivers/STM32F1xx_HAL_Driver/Src/stm32f1xx_hal_dma.c ****     hdma->ErrorCode = HAL_DMA_ERROR_NO_XFER;
 511:Drivers/STM32F1xx_HAL_Driver/Src/stm32f1xx_hal_dma.c ****     __HAL_UNLOCK(hdma);
 512:Drivers/STM32F1xx_HAL_Driver/Src/stm32f1xx_hal_dma.c ****     return HAL_ERROR;
 513:Drivers/STM32F1xx_HAL_Driver/Src/stm32f1xx_hal_dma.c ****   }
 514:Drivers/STM32F1xx_HAL_Driver/Src/stm32f1xx_hal_dma.c **** 
 515:Drivers/STM32F1xx_HAL_Driver/Src/stm32f1xx_hal_dma.c ****   /* Polling mode not supported in circular mode */
 516:Drivers/STM32F1xx_HAL_Driver/Src/stm32f1xx_hal_dma.c ****   if (RESET != (hdma->Instance->CCR & DMA_CCR_CIRC))
 517:Drivers/STM32F1xx_HAL_Driver/Src/stm32f1xx_hal_dma.c ****   {
 518:Drivers/STM32F1xx_HAL_Driver/Src/stm32f1xx_hal_dma.c ****     hdma->ErrorCode = HAL_DMA_ERROR_NOT_SUPPORTED;
 519:Drivers/STM32F1xx_HAL_Driver/Src/stm32f1xx_hal_dma.c ****     return HAL_ERROR;
 520:Drivers/STM32F1xx_HAL_Driver/Src/stm32f1xx_hal_dma.c ****   }
 521:Drivers/STM32F1xx_HAL_Driver/Src/stm32f1xx_hal_dma.c ****   
 522:Drivers/STM32F1xx_HAL_Driver/Src/stm32f1xx_hal_dma.c ****   /* Get the level transfer complete flag */
 523:Drivers/STM32F1xx_HAL_Driver/Src/stm32f1xx_hal_dma.c ****   if(CompleteLevel == HAL_DMA_FULL_TRANSFER)
 524:Drivers/STM32F1xx_HAL_Driver/Src/stm32f1xx_hal_dma.c ****   {
 525:Drivers/STM32F1xx_HAL_Driver/Src/stm32f1xx_hal_dma.c ****     /* Transfer Complete flag */
 526:Drivers/STM32F1xx_HAL_Driver/Src/stm32f1xx_hal_dma.c ****     temp = __HAL_DMA_GET_TC_FLAG_INDEX(hdma);
 527:Drivers/STM32F1xx_HAL_Driver/Src/stm32f1xx_hal_dma.c ****   }
 528:Drivers/STM32F1xx_HAL_Driver/Src/stm32f1xx_hal_dma.c ****   else
 529:Drivers/STM32F1xx_HAL_Driver/Src/stm32f1xx_hal_dma.c ****   {
 530:Drivers/STM32F1xx_HAL_Driver/Src/stm32f1xx_hal_dma.c ****     /* Half Transfer Complete flag */
 531:Drivers/STM32F1xx_HAL_Driver/Src/stm32f1xx_hal_dma.c ****     temp = __HAL_DMA_GET_HT_FLAG_INDEX(hdma);
 532:Drivers/STM32F1xx_HAL_Driver/Src/stm32f1xx_hal_dma.c ****   }
ARM GAS  C:\Users\86184\AppData\Local\Temp\ccT1ePg0.s 			page 19


 533:Drivers/STM32F1xx_HAL_Driver/Src/stm32f1xx_hal_dma.c **** 
 534:Drivers/STM32F1xx_HAL_Driver/Src/stm32f1xx_hal_dma.c ****   /* Get tick */
 535:Drivers/STM32F1xx_HAL_Driver/Src/stm32f1xx_hal_dma.c ****   tickstart = HAL_GetTick();
 536:Drivers/STM32F1xx_HAL_Driver/Src/stm32f1xx_hal_dma.c **** 
 537:Drivers/STM32F1xx_HAL_Driver/Src/stm32f1xx_hal_dma.c ****   while(__HAL_DMA_GET_FLAG(hdma, temp) == RESET)
 538:Drivers/STM32F1xx_HAL_Driver/Src/stm32f1xx_hal_dma.c ****   {
 539:Drivers/STM32F1xx_HAL_Driver/Src/stm32f1xx_hal_dma.c ****     if((__HAL_DMA_GET_FLAG(hdma, __HAL_DMA_GET_TE_FLAG_INDEX(hdma)) != RESET))
 540:Drivers/STM32F1xx_HAL_Driver/Src/stm32f1xx_hal_dma.c ****     {
 541:Drivers/STM32F1xx_HAL_Driver/Src/stm32f1xx_hal_dma.c ****       /* When a DMA transfer error occurs */
 542:Drivers/STM32F1xx_HAL_Driver/Src/stm32f1xx_hal_dma.c ****       /* A hardware clear of its EN bits is performed */
 543:Drivers/STM32F1xx_HAL_Driver/Src/stm32f1xx_hal_dma.c ****       /* Clear all flags */
 544:Drivers/STM32F1xx_HAL_Driver/Src/stm32f1xx_hal_dma.c ****       hdma->DmaBaseAddress->IFCR = (DMA_ISR_GIF1 << hdma->ChannelIndex);
 545:Drivers/STM32F1xx_HAL_Driver/Src/stm32f1xx_hal_dma.c **** 
 546:Drivers/STM32F1xx_HAL_Driver/Src/stm32f1xx_hal_dma.c ****       /* Update error code */
 547:Drivers/STM32F1xx_HAL_Driver/Src/stm32f1xx_hal_dma.c ****       SET_BIT(hdma->ErrorCode, HAL_DMA_ERROR_TE);
 548:Drivers/STM32F1xx_HAL_Driver/Src/stm32f1xx_hal_dma.c **** 
 549:Drivers/STM32F1xx_HAL_Driver/Src/stm32f1xx_hal_dma.c ****       /* Change the DMA state */
 550:Drivers/STM32F1xx_HAL_Driver/Src/stm32f1xx_hal_dma.c ****       hdma->State= HAL_DMA_STATE_READY;
 551:Drivers/STM32F1xx_HAL_Driver/Src/stm32f1xx_hal_dma.c **** 
 552:Drivers/STM32F1xx_HAL_Driver/Src/stm32f1xx_hal_dma.c ****       /* Process Unlocked */
 553:Drivers/STM32F1xx_HAL_Driver/Src/stm32f1xx_hal_dma.c ****       __HAL_UNLOCK(hdma);
 554:Drivers/STM32F1xx_HAL_Driver/Src/stm32f1xx_hal_dma.c **** 
 555:Drivers/STM32F1xx_HAL_Driver/Src/stm32f1xx_hal_dma.c ****       return HAL_ERROR;
 556:Drivers/STM32F1xx_HAL_Driver/Src/stm32f1xx_hal_dma.c ****     }
 557:Drivers/STM32F1xx_HAL_Driver/Src/stm32f1xx_hal_dma.c ****     /* Check for the Timeout */
 558:Drivers/STM32F1xx_HAL_Driver/Src/stm32f1xx_hal_dma.c ****     if(Timeout != HAL_MAX_DELAY)
 559:Drivers/STM32F1xx_HAL_Driver/Src/stm32f1xx_hal_dma.c ****     {
 560:Drivers/STM32F1xx_HAL_Driver/Src/stm32f1xx_hal_dma.c ****       if((Timeout == 0U) || ((HAL_GetTick() - tickstart) > Timeout))
 561:Drivers/STM32F1xx_HAL_Driver/Src/stm32f1xx_hal_dma.c ****       {
 562:Drivers/STM32F1xx_HAL_Driver/Src/stm32f1xx_hal_dma.c ****         /* Update error code */
 563:Drivers/STM32F1xx_HAL_Driver/Src/stm32f1xx_hal_dma.c ****         SET_BIT(hdma->ErrorCode, HAL_DMA_ERROR_TIMEOUT);
 564:Drivers/STM32F1xx_HAL_Driver/Src/stm32f1xx_hal_dma.c **** 
 565:Drivers/STM32F1xx_HAL_Driver/Src/stm32f1xx_hal_dma.c ****         /* Change the DMA state */
 566:Drivers/STM32F1xx_HAL_Driver/Src/stm32f1xx_hal_dma.c ****         hdma->State = HAL_DMA_STATE_READY;
 567:Drivers/STM32F1xx_HAL_Driver/Src/stm32f1xx_hal_dma.c **** 
 568:Drivers/STM32F1xx_HAL_Driver/Src/stm32f1xx_hal_dma.c ****         /* Process Unlocked */
 569:Drivers/STM32F1xx_HAL_Driver/Src/stm32f1xx_hal_dma.c ****         __HAL_UNLOCK(hdma);
 570:Drivers/STM32F1xx_HAL_Driver/Src/stm32f1xx_hal_dma.c **** 
 571:Drivers/STM32F1xx_HAL_Driver/Src/stm32f1xx_hal_dma.c ****         return HAL_ERROR;
 572:Drivers/STM32F1xx_HAL_Driver/Src/stm32f1xx_hal_dma.c ****       }
 573:Drivers/STM32F1xx_HAL_Driver/Src/stm32f1xx_hal_dma.c ****     }
 574:Drivers/STM32F1xx_HAL_Driver/Src/stm32f1xx_hal_dma.c ****   }
 575:Drivers/STM32F1xx_HAL_Driver/Src/stm32f1xx_hal_dma.c **** 
 576:Drivers/STM32F1xx_HAL_Driver/Src/stm32f1xx_hal_dma.c ****   if(CompleteLevel == HAL_DMA_FULL_TRANSFER)
 577:Drivers/STM32F1xx_HAL_Driver/Src/stm32f1xx_hal_dma.c ****   {
 578:Drivers/STM32F1xx_HAL_Driver/Src/stm32f1xx_hal_dma.c ****     /* Clear the transfer complete flag */
 579:Drivers/STM32F1xx_HAL_Driver/Src/stm32f1xx_hal_dma.c ****     __HAL_DMA_CLEAR_FLAG(hdma, __HAL_DMA_GET_TC_FLAG_INDEX(hdma));
 580:Drivers/STM32F1xx_HAL_Driver/Src/stm32f1xx_hal_dma.c **** 
 581:Drivers/STM32F1xx_HAL_Driver/Src/stm32f1xx_hal_dma.c ****     /* The selected Channelx EN bit is cleared (DMA is disabled and
 582:Drivers/STM32F1xx_HAL_Driver/Src/stm32f1xx_hal_dma.c ****     all transfers are complete) */
 583:Drivers/STM32F1xx_HAL_Driver/Src/stm32f1xx_hal_dma.c ****     hdma->State = HAL_DMA_STATE_READY;
 584:Drivers/STM32F1xx_HAL_Driver/Src/stm32f1xx_hal_dma.c ****   }
 585:Drivers/STM32F1xx_HAL_Driver/Src/stm32f1xx_hal_dma.c ****   else
 586:Drivers/STM32F1xx_HAL_Driver/Src/stm32f1xx_hal_dma.c ****   {
 587:Drivers/STM32F1xx_HAL_Driver/Src/stm32f1xx_hal_dma.c ****     /* Clear the half transfer complete flag */
 588:Drivers/STM32F1xx_HAL_Driver/Src/stm32f1xx_hal_dma.c ****     __HAL_DMA_CLEAR_FLAG(hdma, __HAL_DMA_GET_HT_FLAG_INDEX(hdma));
 589:Drivers/STM32F1xx_HAL_Driver/Src/stm32f1xx_hal_dma.c ****   }
ARM GAS  C:\Users\86184\AppData\Local\Temp\ccT1ePg0.s 			page 20


 590:Drivers/STM32F1xx_HAL_Driver/Src/stm32f1xx_hal_dma.c ****   
 591:Drivers/STM32F1xx_HAL_Driver/Src/stm32f1xx_hal_dma.c ****   /* Process unlocked */
 592:Drivers/STM32F1xx_HAL_Driver/Src/stm32f1xx_hal_dma.c ****   __HAL_UNLOCK(hdma);
 593:Drivers/STM32F1xx_HAL_Driver/Src/stm32f1xx_hal_dma.c **** 
 594:Drivers/STM32F1xx_HAL_Driver/Src/stm32f1xx_hal_dma.c ****   return HAL_OK;
 595:Drivers/STM32F1xx_HAL_Driver/Src/stm32f1xx_hal_dma.c **** }
 596:Drivers/STM32F1xx_HAL_Driver/Src/stm32f1xx_hal_dma.c **** 
 597:Drivers/STM32F1xx_HAL_Driver/Src/stm32f1xx_hal_dma.c **** /**
 598:Drivers/STM32F1xx_HAL_Driver/Src/stm32f1xx_hal_dma.c ****   * @brief  Handles DMA interrupt request.
 599:Drivers/STM32F1xx_HAL_Driver/Src/stm32f1xx_hal_dma.c ****   * @param  hdma: pointer to a DMA_HandleTypeDef structure that contains
 600:Drivers/STM32F1xx_HAL_Driver/Src/stm32f1xx_hal_dma.c ****   *               the configuration information for the specified DMA Channel.  
 601:Drivers/STM32F1xx_HAL_Driver/Src/stm32f1xx_hal_dma.c ****   * @retval None
 602:Drivers/STM32F1xx_HAL_Driver/Src/stm32f1xx_hal_dma.c ****   */
 603:Drivers/STM32F1xx_HAL_Driver/Src/stm32f1xx_hal_dma.c **** void HAL_DMA_IRQHandler(DMA_HandleTypeDef *hdma)
 604:Drivers/STM32F1xx_HAL_Driver/Src/stm32f1xx_hal_dma.c **** {
 605:Drivers/STM32F1xx_HAL_Driver/Src/stm32f1xx_hal_dma.c ****   uint32_t flag_it = hdma->DmaBaseAddress->ISR;
 606:Drivers/STM32F1xx_HAL_Driver/Src/stm32f1xx_hal_dma.c ****   uint32_t source_it = hdma->Instance->CCR;
 607:Drivers/STM32F1xx_HAL_Driver/Src/stm32f1xx_hal_dma.c ****   
 608:Drivers/STM32F1xx_HAL_Driver/Src/stm32f1xx_hal_dma.c ****   /* Half Transfer Complete Interrupt management ******************************/
 609:Drivers/STM32F1xx_HAL_Driver/Src/stm32f1xx_hal_dma.c ****   if (((flag_it & (DMA_FLAG_HT1 << hdma->ChannelIndex)) != RESET) && ((source_it & DMA_IT_HT) != RE
 610:Drivers/STM32F1xx_HAL_Driver/Src/stm32f1xx_hal_dma.c ****   {
 611:Drivers/STM32F1xx_HAL_Driver/Src/stm32f1xx_hal_dma.c ****     /* Disable the half transfer interrupt if the DMA mode is not CIRCULAR */
 612:Drivers/STM32F1xx_HAL_Driver/Src/stm32f1xx_hal_dma.c ****     if((hdma->Instance->CCR & DMA_CCR_CIRC) == 0U)
 613:Drivers/STM32F1xx_HAL_Driver/Src/stm32f1xx_hal_dma.c ****     {
 614:Drivers/STM32F1xx_HAL_Driver/Src/stm32f1xx_hal_dma.c ****       /* Disable the half transfer interrupt */
 615:Drivers/STM32F1xx_HAL_Driver/Src/stm32f1xx_hal_dma.c ****       __HAL_DMA_DISABLE_IT(hdma, DMA_IT_HT);
 616:Drivers/STM32F1xx_HAL_Driver/Src/stm32f1xx_hal_dma.c ****     }
 617:Drivers/STM32F1xx_HAL_Driver/Src/stm32f1xx_hal_dma.c ****     /* Clear the half transfer complete flag */
 618:Drivers/STM32F1xx_HAL_Driver/Src/stm32f1xx_hal_dma.c ****     __HAL_DMA_CLEAR_FLAG(hdma, __HAL_DMA_GET_HT_FLAG_INDEX(hdma));
 619:Drivers/STM32F1xx_HAL_Driver/Src/stm32f1xx_hal_dma.c **** 
 620:Drivers/STM32F1xx_HAL_Driver/Src/stm32f1xx_hal_dma.c ****     /* DMA peripheral state is not updated in Half Transfer */
 621:Drivers/STM32F1xx_HAL_Driver/Src/stm32f1xx_hal_dma.c ****     /* but in Transfer Complete case */
 622:Drivers/STM32F1xx_HAL_Driver/Src/stm32f1xx_hal_dma.c **** 
 623:Drivers/STM32F1xx_HAL_Driver/Src/stm32f1xx_hal_dma.c ****     if(hdma->XferHalfCpltCallback != NULL)
 624:Drivers/STM32F1xx_HAL_Driver/Src/stm32f1xx_hal_dma.c ****     {
 625:Drivers/STM32F1xx_HAL_Driver/Src/stm32f1xx_hal_dma.c ****       /* Half transfer callback */
 626:Drivers/STM32F1xx_HAL_Driver/Src/stm32f1xx_hal_dma.c ****       hdma->XferHalfCpltCallback(hdma);
 627:Drivers/STM32F1xx_HAL_Driver/Src/stm32f1xx_hal_dma.c ****     }
 628:Drivers/STM32F1xx_HAL_Driver/Src/stm32f1xx_hal_dma.c ****   }
 629:Drivers/STM32F1xx_HAL_Driver/Src/stm32f1xx_hal_dma.c **** 
 630:Drivers/STM32F1xx_HAL_Driver/Src/stm32f1xx_hal_dma.c ****   /* Transfer Complete Interrupt management ***********************************/
 631:Drivers/STM32F1xx_HAL_Driver/Src/stm32f1xx_hal_dma.c ****   else if (((flag_it & (DMA_FLAG_TC1 << hdma->ChannelIndex)) != RESET) && ((source_it & DMA_IT_TC) 
 632:Drivers/STM32F1xx_HAL_Driver/Src/stm32f1xx_hal_dma.c ****   {
 633:Drivers/STM32F1xx_HAL_Driver/Src/stm32f1xx_hal_dma.c ****     if((hdma->Instance->CCR & DMA_CCR_CIRC) == 0U)
 634:Drivers/STM32F1xx_HAL_Driver/Src/stm32f1xx_hal_dma.c ****     {
 635:Drivers/STM32F1xx_HAL_Driver/Src/stm32f1xx_hal_dma.c ****       /* Disable the transfer complete and error interrupt */
 636:Drivers/STM32F1xx_HAL_Driver/Src/stm32f1xx_hal_dma.c ****       __HAL_DMA_DISABLE_IT(hdma, DMA_IT_TE | DMA_IT_TC);  
 637:Drivers/STM32F1xx_HAL_Driver/Src/stm32f1xx_hal_dma.c **** 
 638:Drivers/STM32F1xx_HAL_Driver/Src/stm32f1xx_hal_dma.c ****       /* Change the DMA state */
 639:Drivers/STM32F1xx_HAL_Driver/Src/stm32f1xx_hal_dma.c ****       hdma->State = HAL_DMA_STATE_READY;
 640:Drivers/STM32F1xx_HAL_Driver/Src/stm32f1xx_hal_dma.c ****     }
 641:Drivers/STM32F1xx_HAL_Driver/Src/stm32f1xx_hal_dma.c ****     /* Clear the transfer complete flag */
 642:Drivers/STM32F1xx_HAL_Driver/Src/stm32f1xx_hal_dma.c ****       __HAL_DMA_CLEAR_FLAG(hdma, __HAL_DMA_GET_TC_FLAG_INDEX(hdma));
 643:Drivers/STM32F1xx_HAL_Driver/Src/stm32f1xx_hal_dma.c **** 
 644:Drivers/STM32F1xx_HAL_Driver/Src/stm32f1xx_hal_dma.c ****     /* Process Unlocked */
 645:Drivers/STM32F1xx_HAL_Driver/Src/stm32f1xx_hal_dma.c ****     __HAL_UNLOCK(hdma);
 646:Drivers/STM32F1xx_HAL_Driver/Src/stm32f1xx_hal_dma.c **** 
ARM GAS  C:\Users\86184\AppData\Local\Temp\ccT1ePg0.s 			page 21


 647:Drivers/STM32F1xx_HAL_Driver/Src/stm32f1xx_hal_dma.c ****     if(hdma->XferCpltCallback != NULL)
 648:Drivers/STM32F1xx_HAL_Driver/Src/stm32f1xx_hal_dma.c ****     {
 649:Drivers/STM32F1xx_HAL_Driver/Src/stm32f1xx_hal_dma.c ****       /* Transfer complete callback */
 650:Drivers/STM32F1xx_HAL_Driver/Src/stm32f1xx_hal_dma.c ****       hdma->XferCpltCallback(hdma);
 651:Drivers/STM32F1xx_HAL_Driver/Src/stm32f1xx_hal_dma.c ****     }
 652:Drivers/STM32F1xx_HAL_Driver/Src/stm32f1xx_hal_dma.c ****   }
 653:Drivers/STM32F1xx_HAL_Driver/Src/stm32f1xx_hal_dma.c **** 
 654:Drivers/STM32F1xx_HAL_Driver/Src/stm32f1xx_hal_dma.c ****   /* Transfer Error Interrupt management **************************************/
 655:Drivers/STM32F1xx_HAL_Driver/Src/stm32f1xx_hal_dma.c ****   else if (( RESET != (flag_it & (DMA_FLAG_TE1 << hdma->ChannelIndex))) && (RESET != (source_it & D
 656:Drivers/STM32F1xx_HAL_Driver/Src/stm32f1xx_hal_dma.c ****   {
 657:Drivers/STM32F1xx_HAL_Driver/Src/stm32f1xx_hal_dma.c ****     /* When a DMA transfer error occurs */
 658:Drivers/STM32F1xx_HAL_Driver/Src/stm32f1xx_hal_dma.c ****     /* A hardware clear of its EN bits is performed */
 659:Drivers/STM32F1xx_HAL_Driver/Src/stm32f1xx_hal_dma.c ****     /* Disable ALL DMA IT */
 660:Drivers/STM32F1xx_HAL_Driver/Src/stm32f1xx_hal_dma.c ****     __HAL_DMA_DISABLE_IT(hdma, (DMA_IT_TC | DMA_IT_HT | DMA_IT_TE));
 661:Drivers/STM32F1xx_HAL_Driver/Src/stm32f1xx_hal_dma.c **** 
 662:Drivers/STM32F1xx_HAL_Driver/Src/stm32f1xx_hal_dma.c ****     /* Clear all flags */
 663:Drivers/STM32F1xx_HAL_Driver/Src/stm32f1xx_hal_dma.c ****     hdma->DmaBaseAddress->IFCR = (DMA_ISR_GIF1 << hdma->ChannelIndex);
 664:Drivers/STM32F1xx_HAL_Driver/Src/stm32f1xx_hal_dma.c **** 
 665:Drivers/STM32F1xx_HAL_Driver/Src/stm32f1xx_hal_dma.c ****     /* Update error code */
 666:Drivers/STM32F1xx_HAL_Driver/Src/stm32f1xx_hal_dma.c ****     hdma->ErrorCode = HAL_DMA_ERROR_TE;
 667:Drivers/STM32F1xx_HAL_Driver/Src/stm32f1xx_hal_dma.c **** 
 668:Drivers/STM32F1xx_HAL_Driver/Src/stm32f1xx_hal_dma.c ****     /* Change the DMA state */
 669:Drivers/STM32F1xx_HAL_Driver/Src/stm32f1xx_hal_dma.c ****     hdma->State = HAL_DMA_STATE_READY;
 670:Drivers/STM32F1xx_HAL_Driver/Src/stm32f1xx_hal_dma.c **** 
 671:Drivers/STM32F1xx_HAL_Driver/Src/stm32f1xx_hal_dma.c ****     /* Process Unlocked */
 672:Drivers/STM32F1xx_HAL_Driver/Src/stm32f1xx_hal_dma.c ****     __HAL_UNLOCK(hdma);
 673:Drivers/STM32F1xx_HAL_Driver/Src/stm32f1xx_hal_dma.c **** 
 674:Drivers/STM32F1xx_HAL_Driver/Src/stm32f1xx_hal_dma.c ****     if (hdma->XferErrorCallback != NULL)
 675:Drivers/STM32F1xx_HAL_Driver/Src/stm32f1xx_hal_dma.c ****     {
 676:Drivers/STM32F1xx_HAL_Driver/Src/stm32f1xx_hal_dma.c ****       /* Transfer error callback */
 677:Drivers/STM32F1xx_HAL_Driver/Src/stm32f1xx_hal_dma.c ****       hdma->XferErrorCallback(hdma);
 678:Drivers/STM32F1xx_HAL_Driver/Src/stm32f1xx_hal_dma.c ****     }
 679:Drivers/STM32F1xx_HAL_Driver/Src/stm32f1xx_hal_dma.c ****   }
 680:Drivers/STM32F1xx_HAL_Driver/Src/stm32f1xx_hal_dma.c ****   return;
 681:Drivers/STM32F1xx_HAL_Driver/Src/stm32f1xx_hal_dma.c **** }
 682:Drivers/STM32F1xx_HAL_Driver/Src/stm32f1xx_hal_dma.c **** 
 683:Drivers/STM32F1xx_HAL_Driver/Src/stm32f1xx_hal_dma.c **** /**
 684:Drivers/STM32F1xx_HAL_Driver/Src/stm32f1xx_hal_dma.c ****   * @brief Register callbacks
 685:Drivers/STM32F1xx_HAL_Driver/Src/stm32f1xx_hal_dma.c ****   * @param hdma: pointer to a DMA_HandleTypeDef structure that contains
 686:Drivers/STM32F1xx_HAL_Driver/Src/stm32f1xx_hal_dma.c ****   *              the configuration information for the specified DMA Channel.
 687:Drivers/STM32F1xx_HAL_Driver/Src/stm32f1xx_hal_dma.c ****   * @param CallbackID: User Callback identifer
 688:Drivers/STM32F1xx_HAL_Driver/Src/stm32f1xx_hal_dma.c ****   *                    a HAL_DMA_CallbackIDTypeDef ENUM as parameter.
 689:Drivers/STM32F1xx_HAL_Driver/Src/stm32f1xx_hal_dma.c ****   * @param pCallback: pointer to private callbacsk function which has pointer to 
 690:Drivers/STM32F1xx_HAL_Driver/Src/stm32f1xx_hal_dma.c ****   *                   a DMA_HandleTypeDef structure as parameter.
 691:Drivers/STM32F1xx_HAL_Driver/Src/stm32f1xx_hal_dma.c ****   * @retval HAL status
 692:Drivers/STM32F1xx_HAL_Driver/Src/stm32f1xx_hal_dma.c ****   */                          
 693:Drivers/STM32F1xx_HAL_Driver/Src/stm32f1xx_hal_dma.c **** HAL_StatusTypeDef HAL_DMA_RegisterCallback(DMA_HandleTypeDef *hdma, HAL_DMA_CallbackIDTypeDef Callb
 694:Drivers/STM32F1xx_HAL_Driver/Src/stm32f1xx_hal_dma.c **** {
 695:Drivers/STM32F1xx_HAL_Driver/Src/stm32f1xx_hal_dma.c ****   HAL_StatusTypeDef status = HAL_OK;
 696:Drivers/STM32F1xx_HAL_Driver/Src/stm32f1xx_hal_dma.c ****   
 697:Drivers/STM32F1xx_HAL_Driver/Src/stm32f1xx_hal_dma.c ****   /* Process locked */
 698:Drivers/STM32F1xx_HAL_Driver/Src/stm32f1xx_hal_dma.c ****   __HAL_LOCK(hdma);
 699:Drivers/STM32F1xx_HAL_Driver/Src/stm32f1xx_hal_dma.c ****   
 700:Drivers/STM32F1xx_HAL_Driver/Src/stm32f1xx_hal_dma.c ****   if(HAL_DMA_STATE_READY == hdma->State)
 701:Drivers/STM32F1xx_HAL_Driver/Src/stm32f1xx_hal_dma.c ****   {
 702:Drivers/STM32F1xx_HAL_Driver/Src/stm32f1xx_hal_dma.c ****     switch (CallbackID)
 703:Drivers/STM32F1xx_HAL_Driver/Src/stm32f1xx_hal_dma.c ****     {
ARM GAS  C:\Users\86184\AppData\Local\Temp\ccT1ePg0.s 			page 22


 704:Drivers/STM32F1xx_HAL_Driver/Src/stm32f1xx_hal_dma.c ****     case  HAL_DMA_XFER_CPLT_CB_ID:
 705:Drivers/STM32F1xx_HAL_Driver/Src/stm32f1xx_hal_dma.c ****       hdma->XferCpltCallback = pCallback;
 706:Drivers/STM32F1xx_HAL_Driver/Src/stm32f1xx_hal_dma.c ****       break;
 707:Drivers/STM32F1xx_HAL_Driver/Src/stm32f1xx_hal_dma.c ****       
 708:Drivers/STM32F1xx_HAL_Driver/Src/stm32f1xx_hal_dma.c ****     case  HAL_DMA_XFER_HALFCPLT_CB_ID:
 709:Drivers/STM32F1xx_HAL_Driver/Src/stm32f1xx_hal_dma.c ****       hdma->XferHalfCpltCallback = pCallback;
 710:Drivers/STM32F1xx_HAL_Driver/Src/stm32f1xx_hal_dma.c ****       break;         
 711:Drivers/STM32F1xx_HAL_Driver/Src/stm32f1xx_hal_dma.c **** 
 712:Drivers/STM32F1xx_HAL_Driver/Src/stm32f1xx_hal_dma.c ****     case  HAL_DMA_XFER_ERROR_CB_ID:
 713:Drivers/STM32F1xx_HAL_Driver/Src/stm32f1xx_hal_dma.c ****       hdma->XferErrorCallback = pCallback;
 714:Drivers/STM32F1xx_HAL_Driver/Src/stm32f1xx_hal_dma.c ****       break;         
 715:Drivers/STM32F1xx_HAL_Driver/Src/stm32f1xx_hal_dma.c ****       
 716:Drivers/STM32F1xx_HAL_Driver/Src/stm32f1xx_hal_dma.c ****     case  HAL_DMA_XFER_ABORT_CB_ID:
 717:Drivers/STM32F1xx_HAL_Driver/Src/stm32f1xx_hal_dma.c ****       hdma->XferAbortCallback = pCallback;
 718:Drivers/STM32F1xx_HAL_Driver/Src/stm32f1xx_hal_dma.c ****       break; 
 719:Drivers/STM32F1xx_HAL_Driver/Src/stm32f1xx_hal_dma.c ****       
 720:Drivers/STM32F1xx_HAL_Driver/Src/stm32f1xx_hal_dma.c ****     default:
 721:Drivers/STM32F1xx_HAL_Driver/Src/stm32f1xx_hal_dma.c ****       status = HAL_ERROR;
 722:Drivers/STM32F1xx_HAL_Driver/Src/stm32f1xx_hal_dma.c ****       break;                                                            
 723:Drivers/STM32F1xx_HAL_Driver/Src/stm32f1xx_hal_dma.c ****     }
 724:Drivers/STM32F1xx_HAL_Driver/Src/stm32f1xx_hal_dma.c ****   }
 725:Drivers/STM32F1xx_HAL_Driver/Src/stm32f1xx_hal_dma.c ****   else
 726:Drivers/STM32F1xx_HAL_Driver/Src/stm32f1xx_hal_dma.c ****   {
 727:Drivers/STM32F1xx_HAL_Driver/Src/stm32f1xx_hal_dma.c ****     status = HAL_ERROR;
 728:Drivers/STM32F1xx_HAL_Driver/Src/stm32f1xx_hal_dma.c ****   } 
 729:Drivers/STM32F1xx_HAL_Driver/Src/stm32f1xx_hal_dma.c ****   
 730:Drivers/STM32F1xx_HAL_Driver/Src/stm32f1xx_hal_dma.c ****   /* Release Lock */
 731:Drivers/STM32F1xx_HAL_Driver/Src/stm32f1xx_hal_dma.c ****   __HAL_UNLOCK(hdma);
 732:Drivers/STM32F1xx_HAL_Driver/Src/stm32f1xx_hal_dma.c ****   
 733:Drivers/STM32F1xx_HAL_Driver/Src/stm32f1xx_hal_dma.c ****   return status;
 734:Drivers/STM32F1xx_HAL_Driver/Src/stm32f1xx_hal_dma.c **** }
 735:Drivers/STM32F1xx_HAL_Driver/Src/stm32f1xx_hal_dma.c **** 
 736:Drivers/STM32F1xx_HAL_Driver/Src/stm32f1xx_hal_dma.c **** /**
 737:Drivers/STM32F1xx_HAL_Driver/Src/stm32f1xx_hal_dma.c ****   * @brief UnRegister callbacks
 738:Drivers/STM32F1xx_HAL_Driver/Src/stm32f1xx_hal_dma.c ****   * @param hdma: pointer to a DMA_HandleTypeDef structure that contains
 739:Drivers/STM32F1xx_HAL_Driver/Src/stm32f1xx_hal_dma.c ****   *              the configuration information for the specified DMA Channel.
 740:Drivers/STM32F1xx_HAL_Driver/Src/stm32f1xx_hal_dma.c ****   * @param CallbackID: User Callback identifer
 741:Drivers/STM32F1xx_HAL_Driver/Src/stm32f1xx_hal_dma.c ****   *                    a HAL_DMA_CallbackIDTypeDef ENUM as parameter.
 742:Drivers/STM32F1xx_HAL_Driver/Src/stm32f1xx_hal_dma.c ****   * @retval HAL status
 743:Drivers/STM32F1xx_HAL_Driver/Src/stm32f1xx_hal_dma.c ****   */              
 744:Drivers/STM32F1xx_HAL_Driver/Src/stm32f1xx_hal_dma.c **** HAL_StatusTypeDef HAL_DMA_UnRegisterCallback(DMA_HandleTypeDef *hdma, HAL_DMA_CallbackIDTypeDef Cal
 745:Drivers/STM32F1xx_HAL_Driver/Src/stm32f1xx_hal_dma.c **** {
 746:Drivers/STM32F1xx_HAL_Driver/Src/stm32f1xx_hal_dma.c ****   HAL_StatusTypeDef status = HAL_OK;
 747:Drivers/STM32F1xx_HAL_Driver/Src/stm32f1xx_hal_dma.c **** 
 748:Drivers/STM32F1xx_HAL_Driver/Src/stm32f1xx_hal_dma.c ****   /* Process locked */
 749:Drivers/STM32F1xx_HAL_Driver/Src/stm32f1xx_hal_dma.c ****   __HAL_LOCK(hdma);
 750:Drivers/STM32F1xx_HAL_Driver/Src/stm32f1xx_hal_dma.c ****   
 751:Drivers/STM32F1xx_HAL_Driver/Src/stm32f1xx_hal_dma.c ****   if(HAL_DMA_STATE_READY == hdma->State)
 752:Drivers/STM32F1xx_HAL_Driver/Src/stm32f1xx_hal_dma.c ****   {
 753:Drivers/STM32F1xx_HAL_Driver/Src/stm32f1xx_hal_dma.c ****     switch (CallbackID)
 754:Drivers/STM32F1xx_HAL_Driver/Src/stm32f1xx_hal_dma.c ****     {
 755:Drivers/STM32F1xx_HAL_Driver/Src/stm32f1xx_hal_dma.c ****     case  HAL_DMA_XFER_CPLT_CB_ID:
 756:Drivers/STM32F1xx_HAL_Driver/Src/stm32f1xx_hal_dma.c ****       hdma->XferCpltCallback = NULL;
 757:Drivers/STM32F1xx_HAL_Driver/Src/stm32f1xx_hal_dma.c ****       break;
 758:Drivers/STM32F1xx_HAL_Driver/Src/stm32f1xx_hal_dma.c **** 
 759:Drivers/STM32F1xx_HAL_Driver/Src/stm32f1xx_hal_dma.c ****     case  HAL_DMA_XFER_HALFCPLT_CB_ID:
 760:Drivers/STM32F1xx_HAL_Driver/Src/stm32f1xx_hal_dma.c ****       hdma->XferHalfCpltCallback = NULL;
ARM GAS  C:\Users\86184\AppData\Local\Temp\ccT1ePg0.s 			page 23


 761:Drivers/STM32F1xx_HAL_Driver/Src/stm32f1xx_hal_dma.c ****       break;         
 762:Drivers/STM32F1xx_HAL_Driver/Src/stm32f1xx_hal_dma.c **** 
 763:Drivers/STM32F1xx_HAL_Driver/Src/stm32f1xx_hal_dma.c ****     case  HAL_DMA_XFER_ERROR_CB_ID:
 764:Drivers/STM32F1xx_HAL_Driver/Src/stm32f1xx_hal_dma.c ****       hdma->XferErrorCallback = NULL;
 765:Drivers/STM32F1xx_HAL_Driver/Src/stm32f1xx_hal_dma.c ****       break;         
 766:Drivers/STM32F1xx_HAL_Driver/Src/stm32f1xx_hal_dma.c **** 
 767:Drivers/STM32F1xx_HAL_Driver/Src/stm32f1xx_hal_dma.c ****     case  HAL_DMA_XFER_ABORT_CB_ID:
 768:Drivers/STM32F1xx_HAL_Driver/Src/stm32f1xx_hal_dma.c ****       hdma->XferAbortCallback = NULL;
 769:Drivers/STM32F1xx_HAL_Driver/Src/stm32f1xx_hal_dma.c ****       break; 
 770:Drivers/STM32F1xx_HAL_Driver/Src/stm32f1xx_hal_dma.c **** 
 771:Drivers/STM32F1xx_HAL_Driver/Src/stm32f1xx_hal_dma.c ****     case   HAL_DMA_XFER_ALL_CB_ID:
 772:Drivers/STM32F1xx_HAL_Driver/Src/stm32f1xx_hal_dma.c ****       hdma->XferCpltCallback = NULL;
 773:Drivers/STM32F1xx_HAL_Driver/Src/stm32f1xx_hal_dma.c ****       hdma->XferHalfCpltCallback = NULL;
 774:Drivers/STM32F1xx_HAL_Driver/Src/stm32f1xx_hal_dma.c ****       hdma->XferErrorCallback = NULL;
 775:Drivers/STM32F1xx_HAL_Driver/Src/stm32f1xx_hal_dma.c ****       hdma->XferAbortCallback = NULL;
 776:Drivers/STM32F1xx_HAL_Driver/Src/stm32f1xx_hal_dma.c ****       break; 
 777:Drivers/STM32F1xx_HAL_Driver/Src/stm32f1xx_hal_dma.c **** 
 778:Drivers/STM32F1xx_HAL_Driver/Src/stm32f1xx_hal_dma.c ****     default:
 779:Drivers/STM32F1xx_HAL_Driver/Src/stm32f1xx_hal_dma.c ****       status = HAL_ERROR;
 780:Drivers/STM32F1xx_HAL_Driver/Src/stm32f1xx_hal_dma.c ****       break;
 781:Drivers/STM32F1xx_HAL_Driver/Src/stm32f1xx_hal_dma.c ****     }
 782:Drivers/STM32F1xx_HAL_Driver/Src/stm32f1xx_hal_dma.c ****   }
 783:Drivers/STM32F1xx_HAL_Driver/Src/stm32f1xx_hal_dma.c ****   else
 784:Drivers/STM32F1xx_HAL_Driver/Src/stm32f1xx_hal_dma.c ****   {
 785:Drivers/STM32F1xx_HAL_Driver/Src/stm32f1xx_hal_dma.c ****     status = HAL_ERROR;
 786:Drivers/STM32F1xx_HAL_Driver/Src/stm32f1xx_hal_dma.c ****   } 
 787:Drivers/STM32F1xx_HAL_Driver/Src/stm32f1xx_hal_dma.c ****   
 788:Drivers/STM32F1xx_HAL_Driver/Src/stm32f1xx_hal_dma.c ****   /* Release Lock */
 789:Drivers/STM32F1xx_HAL_Driver/Src/stm32f1xx_hal_dma.c ****   __HAL_UNLOCK(hdma);
 790:Drivers/STM32F1xx_HAL_Driver/Src/stm32f1xx_hal_dma.c ****   
 791:Drivers/STM32F1xx_HAL_Driver/Src/stm32f1xx_hal_dma.c ****   return status;
 792:Drivers/STM32F1xx_HAL_Driver/Src/stm32f1xx_hal_dma.c **** }
 793:Drivers/STM32F1xx_HAL_Driver/Src/stm32f1xx_hal_dma.c ****   
 794:Drivers/STM32F1xx_HAL_Driver/Src/stm32f1xx_hal_dma.c **** /**
 795:Drivers/STM32F1xx_HAL_Driver/Src/stm32f1xx_hal_dma.c ****   * @}
 796:Drivers/STM32F1xx_HAL_Driver/Src/stm32f1xx_hal_dma.c ****   */
 797:Drivers/STM32F1xx_HAL_Driver/Src/stm32f1xx_hal_dma.c **** 
 798:Drivers/STM32F1xx_HAL_Driver/Src/stm32f1xx_hal_dma.c **** /** @defgroup DMA_Exported_Functions_Group3 Peripheral State and Errors functions
 799:Drivers/STM32F1xx_HAL_Driver/Src/stm32f1xx_hal_dma.c ****   *  @brief    Peripheral State and Errors functions
 800:Drivers/STM32F1xx_HAL_Driver/Src/stm32f1xx_hal_dma.c ****   *
 801:Drivers/STM32F1xx_HAL_Driver/Src/stm32f1xx_hal_dma.c **** @verbatim
 802:Drivers/STM32F1xx_HAL_Driver/Src/stm32f1xx_hal_dma.c ****  ===============================================================================
 803:Drivers/STM32F1xx_HAL_Driver/Src/stm32f1xx_hal_dma.c ****             ##### Peripheral State and Errors functions #####
 804:Drivers/STM32F1xx_HAL_Driver/Src/stm32f1xx_hal_dma.c ****  ===============================================================================  
 805:Drivers/STM32F1xx_HAL_Driver/Src/stm32f1xx_hal_dma.c ****     [..]
 806:Drivers/STM32F1xx_HAL_Driver/Src/stm32f1xx_hal_dma.c ****     This subsection provides functions allowing to
 807:Drivers/STM32F1xx_HAL_Driver/Src/stm32f1xx_hal_dma.c ****       (+) Check the DMA state
 808:Drivers/STM32F1xx_HAL_Driver/Src/stm32f1xx_hal_dma.c ****       (+) Get error code
 809:Drivers/STM32F1xx_HAL_Driver/Src/stm32f1xx_hal_dma.c **** 
 810:Drivers/STM32F1xx_HAL_Driver/Src/stm32f1xx_hal_dma.c **** @endverbatim
 811:Drivers/STM32F1xx_HAL_Driver/Src/stm32f1xx_hal_dma.c ****   * @{
 812:Drivers/STM32F1xx_HAL_Driver/Src/stm32f1xx_hal_dma.c ****   */
 813:Drivers/STM32F1xx_HAL_Driver/Src/stm32f1xx_hal_dma.c **** 
 814:Drivers/STM32F1xx_HAL_Driver/Src/stm32f1xx_hal_dma.c **** /**
 815:Drivers/STM32F1xx_HAL_Driver/Src/stm32f1xx_hal_dma.c ****   * @brief  Return the DMA hande state.
 816:Drivers/STM32F1xx_HAL_Driver/Src/stm32f1xx_hal_dma.c ****   * @param  hdma: pointer to a DMA_HandleTypeDef structure that contains
 817:Drivers/STM32F1xx_HAL_Driver/Src/stm32f1xx_hal_dma.c ****   *               the configuration information for the specified DMA Channel.
ARM GAS  C:\Users\86184\AppData\Local\Temp\ccT1ePg0.s 			page 24


 818:Drivers/STM32F1xx_HAL_Driver/Src/stm32f1xx_hal_dma.c ****   * @retval HAL state
 819:Drivers/STM32F1xx_HAL_Driver/Src/stm32f1xx_hal_dma.c ****   */
 820:Drivers/STM32F1xx_HAL_Driver/Src/stm32f1xx_hal_dma.c **** HAL_DMA_StateTypeDef HAL_DMA_GetState(DMA_HandleTypeDef *hdma)
 821:Drivers/STM32F1xx_HAL_Driver/Src/stm32f1xx_hal_dma.c **** {
 822:Drivers/STM32F1xx_HAL_Driver/Src/stm32f1xx_hal_dma.c ****   /* Return DMA handle state */
 823:Drivers/STM32F1xx_HAL_Driver/Src/stm32f1xx_hal_dma.c ****   return hdma->State;
 824:Drivers/STM32F1xx_HAL_Driver/Src/stm32f1xx_hal_dma.c **** }
 825:Drivers/STM32F1xx_HAL_Driver/Src/stm32f1xx_hal_dma.c **** 
 826:Drivers/STM32F1xx_HAL_Driver/Src/stm32f1xx_hal_dma.c **** /**
 827:Drivers/STM32F1xx_HAL_Driver/Src/stm32f1xx_hal_dma.c ****   * @brief  Return the DMA error code.
 828:Drivers/STM32F1xx_HAL_Driver/Src/stm32f1xx_hal_dma.c ****   * @param  hdma : pointer to a DMA_HandleTypeDef structure that contains
 829:Drivers/STM32F1xx_HAL_Driver/Src/stm32f1xx_hal_dma.c ****   *              the configuration information for the specified DMA Channel.
 830:Drivers/STM32F1xx_HAL_Driver/Src/stm32f1xx_hal_dma.c ****   * @retval DMA Error Code
 831:Drivers/STM32F1xx_HAL_Driver/Src/stm32f1xx_hal_dma.c ****   */
 832:Drivers/STM32F1xx_HAL_Driver/Src/stm32f1xx_hal_dma.c **** uint32_t HAL_DMA_GetError(DMA_HandleTypeDef *hdma)
 833:Drivers/STM32F1xx_HAL_Driver/Src/stm32f1xx_hal_dma.c **** {
 834:Drivers/STM32F1xx_HAL_Driver/Src/stm32f1xx_hal_dma.c ****   return hdma->ErrorCode;
 835:Drivers/STM32F1xx_HAL_Driver/Src/stm32f1xx_hal_dma.c **** }
 836:Drivers/STM32F1xx_HAL_Driver/Src/stm32f1xx_hal_dma.c **** 
 837:Drivers/STM32F1xx_HAL_Driver/Src/stm32f1xx_hal_dma.c **** /**
 838:Drivers/STM32F1xx_HAL_Driver/Src/stm32f1xx_hal_dma.c ****   * @}
 839:Drivers/STM32F1xx_HAL_Driver/Src/stm32f1xx_hal_dma.c ****   */
 840:Drivers/STM32F1xx_HAL_Driver/Src/stm32f1xx_hal_dma.c **** 
 841:Drivers/STM32F1xx_HAL_Driver/Src/stm32f1xx_hal_dma.c **** /**
 842:Drivers/STM32F1xx_HAL_Driver/Src/stm32f1xx_hal_dma.c ****   * @}
 843:Drivers/STM32F1xx_HAL_Driver/Src/stm32f1xx_hal_dma.c ****   */
 844:Drivers/STM32F1xx_HAL_Driver/Src/stm32f1xx_hal_dma.c **** 
 845:Drivers/STM32F1xx_HAL_Driver/Src/stm32f1xx_hal_dma.c **** /** @addtogroup DMA_Private_Functions
 846:Drivers/STM32F1xx_HAL_Driver/Src/stm32f1xx_hal_dma.c ****   * @{
 847:Drivers/STM32F1xx_HAL_Driver/Src/stm32f1xx_hal_dma.c ****   */
 848:Drivers/STM32F1xx_HAL_Driver/Src/stm32f1xx_hal_dma.c **** 
 849:Drivers/STM32F1xx_HAL_Driver/Src/stm32f1xx_hal_dma.c **** /**
 850:Drivers/STM32F1xx_HAL_Driver/Src/stm32f1xx_hal_dma.c ****   * @brief  Sets the DMA Transfer parameter.
 851:Drivers/STM32F1xx_HAL_Driver/Src/stm32f1xx_hal_dma.c ****   * @param  hdma:       pointer to a DMA_HandleTypeDef structure that contains
 852:Drivers/STM32F1xx_HAL_Driver/Src/stm32f1xx_hal_dma.c ****   *                     the configuration information for the specified DMA Channel.
 853:Drivers/STM32F1xx_HAL_Driver/Src/stm32f1xx_hal_dma.c ****   * @param  SrcAddress: The source memory Buffer address
 854:Drivers/STM32F1xx_HAL_Driver/Src/stm32f1xx_hal_dma.c ****   * @param  DstAddress: The destination memory Buffer address
 855:Drivers/STM32F1xx_HAL_Driver/Src/stm32f1xx_hal_dma.c ****   * @param  DataLength: The length of data to be transferred from source to destination
 856:Drivers/STM32F1xx_HAL_Driver/Src/stm32f1xx_hal_dma.c ****   * @retval HAL status
 857:Drivers/STM32F1xx_HAL_Driver/Src/stm32f1xx_hal_dma.c ****   */
 858:Drivers/STM32F1xx_HAL_Driver/Src/stm32f1xx_hal_dma.c **** static void DMA_SetConfig(DMA_HandleTypeDef *hdma, uint32_t SrcAddress, uint32_t DstAddress, uint32
 859:Drivers/STM32F1xx_HAL_Driver/Src/stm32f1xx_hal_dma.c **** {
 860:Drivers/STM32F1xx_HAL_Driver/Src/stm32f1xx_hal_dma.c ****   /* Clear all flags */
 861:Drivers/STM32F1xx_HAL_Driver/Src/stm32f1xx_hal_dma.c ****   hdma->DmaBaseAddress->IFCR = (DMA_ISR_GIF1 << hdma->ChannelIndex);
 414              		.loc 1 861 46 is_stmt 0 view .LVU154
 415 0032 046C     		ldr	r4, [r0, #64]
 416              	.LBE7:
 417              	.LBE6:
 336:Drivers/STM32F1xx_HAL_Driver/Src/stm32f1xx_hal_dma.c ****     
 418              		.loc 1 336 5 view .LVU155
 419 0034 26F00106 		bic	r6, r6, #1
 420 0038 2E60     		str	r6, [r5]
 339:Drivers/STM32F1xx_HAL_Driver/Src/stm32f1xx_hal_dma.c ****     
 421              		.loc 1 339 5 is_stmt 1 view .LVU156
 422              	.LVL17:
 423              	.LBB9:
 424              	.LBI6:
ARM GAS  C:\Users\86184\AppData\Local\Temp\ccT1ePg0.s 			page 25


 858:Drivers/STM32F1xx_HAL_Driver/Src/stm32f1xx_hal_dma.c **** {
 425              		.loc 1 858 13 view .LVU157
 426              	.LBB8:
 427              		.loc 1 861 3 view .LVU158
 428              		.loc 1 861 7 is_stmt 0 view .LVU159
 429 003a C66B     		ldr	r6, [r0, #60]
 862:Drivers/STM32F1xx_HAL_Driver/Src/stm32f1xx_hal_dma.c **** 
 863:Drivers/STM32F1xx_HAL_Driver/Src/stm32f1xx_hal_dma.c ****   /* Configure DMA Channel data length */
 864:Drivers/STM32F1xx_HAL_Driver/Src/stm32f1xx_hal_dma.c ****   hdma->Instance->CNDTR = DataLength;
 865:Drivers/STM32F1xx_HAL_Driver/Src/stm32f1xx_hal_dma.c **** 
 866:Drivers/STM32F1xx_HAL_Driver/Src/stm32f1xx_hal_dma.c ****   /* Memory to Peripheral */
 867:Drivers/STM32F1xx_HAL_Driver/Src/stm32f1xx_hal_dma.c ****   if((hdma->Init.Direction) == DMA_MEMORY_TO_PERIPH)
 430              		.loc 1 867 5 view .LVU160
 431 003c 4068     		ldr	r0, [r0, #4]
 432              	.LVL18:
 861:Drivers/STM32F1xx_HAL_Driver/Src/stm32f1xx_hal_dma.c **** 
 433              		.loc 1 861 46 view .LVU161
 434 003e 0CFA04F4 		lsl	r4, ip, r4
 435              		.loc 1 867 5 view .LVU162
 436 0042 1028     		cmp	r0, #16
 861:Drivers/STM32F1xx_HAL_Driver/Src/stm32f1xx_hal_dma.c **** 
 437              		.loc 1 861 30 view .LVU163
 438 0044 7460     		str	r4, [r6, #4]
 864:Drivers/STM32F1xx_HAL_Driver/Src/stm32f1xx_hal_dma.c **** 
 439              		.loc 1 864 3 is_stmt 1 view .LVU164
 864:Drivers/STM32F1xx_HAL_Driver/Src/stm32f1xx_hal_dma.c **** 
 440              		.loc 1 864 25 is_stmt 0 view .LVU165
 441 0046 6B60     		str	r3, [r5, #4]
 442              		.loc 1 867 3 is_stmt 1 view .LVU166
 868:Drivers/STM32F1xx_HAL_Driver/Src/stm32f1xx_hal_dma.c ****   {
 869:Drivers/STM32F1xx_HAL_Driver/Src/stm32f1xx_hal_dma.c ****     /* Configure DMA Channel destination address */
 870:Drivers/STM32F1xx_HAL_Driver/Src/stm32f1xx_hal_dma.c ****     hdma->Instance->CPAR = DstAddress;
 443              		.loc 1 870 5 view .LVU167
 444              		.loc 1 870 26 is_stmt 0 view .LVU168
 445 0048 0BBF     		itete	eq
 446 004a AA60     		streq	r2, [r5, #8]
 871:Drivers/STM32F1xx_HAL_Driver/Src/stm32f1xx_hal_dma.c **** 
 872:Drivers/STM32F1xx_HAL_Driver/Src/stm32f1xx_hal_dma.c ****     /* Configure DMA Channel source address */
 873:Drivers/STM32F1xx_HAL_Driver/Src/stm32f1xx_hal_dma.c ****     hdma->Instance->CMAR = SrcAddress;
 447              		.loc 1 873 5 is_stmt 1 view .LVU169
 874:Drivers/STM32F1xx_HAL_Driver/Src/stm32f1xx_hal_dma.c ****   }
 875:Drivers/STM32F1xx_HAL_Driver/Src/stm32f1xx_hal_dma.c ****   /* Peripheral to Memory */
 876:Drivers/STM32F1xx_HAL_Driver/Src/stm32f1xx_hal_dma.c ****   else
 877:Drivers/STM32F1xx_HAL_Driver/Src/stm32f1xx_hal_dma.c ****   {
 878:Drivers/STM32F1xx_HAL_Driver/Src/stm32f1xx_hal_dma.c ****     /* Configure DMA Channel source address */
 879:Drivers/STM32F1xx_HAL_Driver/Src/stm32f1xx_hal_dma.c ****     hdma->Instance->CPAR = SrcAddress;
 448              		.loc 1 879 26 is_stmt 0 view .LVU170
 449 004c A960     		strne	r1, [r5, #8]
 873:Drivers/STM32F1xx_HAL_Driver/Src/stm32f1xx_hal_dma.c ****   }
 450              		.loc 1 873 26 view .LVU171
 451 004e E960     		streq	r1, [r5, #12]
 452              		.loc 1 879 5 is_stmt 1 view .LVU172
 880:Drivers/STM32F1xx_HAL_Driver/Src/stm32f1xx_hal_dma.c **** 
 881:Drivers/STM32F1xx_HAL_Driver/Src/stm32f1xx_hal_dma.c ****     /* Configure DMA Channel destination address */
 882:Drivers/STM32F1xx_HAL_Driver/Src/stm32f1xx_hal_dma.c ****     hdma->Instance->CMAR = DstAddress;
 453              		.loc 1 882 5 view .LVU173
 454              		.loc 1 882 26 is_stmt 0 view .LVU174
ARM GAS  C:\Users\86184\AppData\Local\Temp\ccT1ePg0.s 			page 26


 455 0050 EA60     		strne	r2, [r5, #12]
 456              	.LVL19:
 457              		.loc 1 882 26 view .LVU175
 458              	.LBE8:
 459              	.LBE9:
 342:Drivers/STM32F1xx_HAL_Driver/Src/stm32f1xx_hal_dma.c ****   }
 460              		.loc 1 342 5 is_stmt 1 view .LVU176
 461 0052 2B68     		ldr	r3, [r5]
 462              	.LVL20:
 321:Drivers/STM32F1xx_HAL_Driver/Src/stm32f1xx_hal_dma.c **** 
 463              		.loc 1 321 21 is_stmt 0 view .LVU177
 464 0054 0020     		movs	r0, #0
 342:Drivers/STM32F1xx_HAL_Driver/Src/stm32f1xx_hal_dma.c ****   }
 465              		.loc 1 342 5 view .LVU178
 466 0056 43F00103 		orr	r3, r3, #1
 467 005a 2B60     		str	r3, [r5]
 468              	.LVL21:
 351:Drivers/STM32F1xx_HAL_Driver/Src/stm32f1xx_hal_dma.c **** 
 469              		.loc 1 351 1 view .LVU179
 470 005c 70BC     		pop	{r4, r5, r6}
 471              	.LCFI9:
 472              		.cfi_restore 6
 473              		.cfi_restore 5
 474              		.cfi_restore 4
 475              		.cfi_def_cfa_offset 0
 476 005e 7047     		bx	lr
 477              		.cfi_endproc
 478              	.LFE67:
 480              		.section	.text.HAL_DMA_Start_IT,"ax",%progbits
 481              		.align	1
 482              		.p2align 2,,3
 483              		.global	HAL_DMA_Start_IT
 484              		.syntax unified
 485              		.thumb
 486              		.thumb_func
 488              	HAL_DMA_Start_IT:
 489              	.LVL22:
 490              	.LFB68:
 363:Drivers/STM32F1xx_HAL_Driver/Src/stm32f1xx_hal_dma.c ****   HAL_StatusTypeDef status = HAL_OK;
 491              		.loc 1 363 1 is_stmt 1 view -0
 492              		.cfi_startproc
 493              		@ args = 0, pretend = 0, frame = 0
 494              		@ frame_needed = 0, uses_anonymous_args = 0
 495              		@ link register save eliminated.
 364:Drivers/STM32F1xx_HAL_Driver/Src/stm32f1xx_hal_dma.c **** 
 496              		.loc 1 364 3 view .LVU181
 367:Drivers/STM32F1xx_HAL_Driver/Src/stm32f1xx_hal_dma.c **** 
 497              		.loc 1 367 3 view .LVU182
 370:Drivers/STM32F1xx_HAL_Driver/Src/stm32f1xx_hal_dma.c ****   
 498              		.loc 1 370 3 view .LVU183
 370:Drivers/STM32F1xx_HAL_Driver/Src/stm32f1xx_hal_dma.c ****   
 499              		.loc 1 370 3 view .LVU184
 363:Drivers/STM32F1xx_HAL_Driver/Src/stm32f1xx_hal_dma.c ****   HAL_StatusTypeDef status = HAL_OK;
 500              		.loc 1 363 1 is_stmt 0 view .LVU185
 501 0000 70B4     		push	{r4, r5, r6}
 502              	.LCFI10:
 503              		.cfi_def_cfa_offset 12
ARM GAS  C:\Users\86184\AppData\Local\Temp\ccT1ePg0.s 			page 27


 504              		.cfi_offset 4, -12
 505              		.cfi_offset 5, -8
 506              		.cfi_offset 6, -4
 370:Drivers/STM32F1xx_HAL_Driver/Src/stm32f1xx_hal_dma.c ****   
 507              		.loc 1 370 3 view .LVU186
 508 0002 90F82040 		ldrb	r4, [r0, #32]	@ zero_extendqisi2
 509 0006 012C     		cmp	r4, #1
 510 0008 09D0     		beq	.L38
 370:Drivers/STM32F1xx_HAL_Driver/Src/stm32f1xx_hal_dma.c ****   
 511              		.loc 1 370 3 is_stmt 1 discriminator 2 view .LVU187
 512 000a 0124     		movs	r4, #1
 372:Drivers/STM32F1xx_HAL_Driver/Src/stm32f1xx_hal_dma.c ****   {
 513              		.loc 1 372 5 is_stmt 0 discriminator 2 view .LVU188
 514 000c 90F821C0 		ldrb	ip, [r0, #33]	@ zero_extendqisi2
 370:Drivers/STM32F1xx_HAL_Driver/Src/stm32f1xx_hal_dma.c ****   
 515              		.loc 1 370 3 discriminator 2 view .LVU189
 516 0010 80F82040 		strb	r4, [r0, #32]
 370:Drivers/STM32F1xx_HAL_Driver/Src/stm32f1xx_hal_dma.c ****   
 517              		.loc 1 370 3 is_stmt 1 discriminator 2 view .LVU190
 372:Drivers/STM32F1xx_HAL_Driver/Src/stm32f1xx_hal_dma.c ****   {
 518              		.loc 1 372 3 discriminator 2 view .LVU191
 372:Drivers/STM32F1xx_HAL_Driver/Src/stm32f1xx_hal_dma.c ****   {
 519              		.loc 1 372 5 is_stmt 0 discriminator 2 view .LVU192
 520 0014 A445     		cmp	ip, r4
 521 0016 05D0     		beq	.L49
 402:Drivers/STM32F1xx_HAL_Driver/Src/stm32f1xx_hal_dma.c **** 
 522              		.loc 1 402 5 is_stmt 1 view .LVU193
 402:Drivers/STM32F1xx_HAL_Driver/Src/stm32f1xx_hal_dma.c **** 
 523              		.loc 1 402 5 view .LVU194
 524 0018 0023     		movs	r3, #0
 525              	.LVL23:
 402:Drivers/STM32F1xx_HAL_Driver/Src/stm32f1xx_hal_dma.c **** 
 526              		.loc 1 402 5 is_stmt 0 view .LVU195
 527 001a 80F82030 		strb	r3, [r0, #32]
 402:Drivers/STM32F1xx_HAL_Driver/Src/stm32f1xx_hal_dma.c **** 
 528              		.loc 1 402 5 is_stmt 1 view .LVU196
 405:Drivers/STM32F1xx_HAL_Driver/Src/stm32f1xx_hal_dma.c ****   }    
 529              		.loc 1 405 5 view .LVU197
 530              	.LVL24:
 531              	.L38:
 370:Drivers/STM32F1xx_HAL_Driver/Src/stm32f1xx_hal_dma.c ****   
 532              		.loc 1 370 3 is_stmt 0 view .LVU198
 533 001e 0220     		movs	r0, #2
 534              	.LVL25:
 408:Drivers/STM32F1xx_HAL_Driver/Src/stm32f1xx_hal_dma.c **** 
 535              		.loc 1 408 1 view .LVU199
 536 0020 70BC     		pop	{r4, r5, r6}
 537              	.LCFI11:
 538              		.cfi_remember_state
 539              		.cfi_restore 6
 540              		.cfi_restore 5
 541              		.cfi_restore 4
 542              		.cfi_def_cfa_offset 0
 543 0022 7047     		bx	lr
 544              	.LVL26:
 545              	.L49:
 546              	.LCFI12:
ARM GAS  C:\Users\86184\AppData\Local\Temp\ccT1ePg0.s 			page 28


 547              		.cfi_restore_state
 375:Drivers/STM32F1xx_HAL_Driver/Src/stm32f1xx_hal_dma.c ****     hdma->ErrorCode = HAL_DMA_ERROR_NONE;
 548              		.loc 1 375 5 is_stmt 1 view .LVU200
 375:Drivers/STM32F1xx_HAL_Driver/Src/stm32f1xx_hal_dma.c ****     hdma->ErrorCode = HAL_DMA_ERROR_NONE;
 549              		.loc 1 375 17 is_stmt 0 view .LVU201
 550 0024 0224     		movs	r4, #2
 551 0026 80F82140 		strb	r4, [r0, #33]
 376:Drivers/STM32F1xx_HAL_Driver/Src/stm32f1xx_hal_dma.c ****     
 552              		.loc 1 376 5 is_stmt 1 view .LVU202
 376:Drivers/STM32F1xx_HAL_Driver/Src/stm32f1xx_hal_dma.c ****     
 553              		.loc 1 376 21 is_stmt 0 view .LVU203
 554 002a 0024     		movs	r4, #0
 555 002c 8463     		str	r4, [r0, #56]
 379:Drivers/STM32F1xx_HAL_Driver/Src/stm32f1xx_hal_dma.c ****     
 556              		.loc 1 379 5 is_stmt 1 view .LVU204
 557 002e 0468     		ldr	r4, [r0]
 558              	.LBB10:
 559              	.LBB11:
 861:Drivers/STM32F1xx_HAL_Driver/Src/stm32f1xx_hal_dma.c **** 
 560              		.loc 1 861 46 is_stmt 0 view .LVU205
 561 0030 056C     		ldr	r5, [r0, #64]
 562              	.LBE11:
 563              	.LBE10:
 379:Drivers/STM32F1xx_HAL_Driver/Src/stm32f1xx_hal_dma.c ****     
 564              		.loc 1 379 5 view .LVU206
 565 0032 2668     		ldr	r6, [r4]
 566              	.LBB16:
 567              	.LBB12:
 861:Drivers/STM32F1xx_HAL_Driver/Src/stm32f1xx_hal_dma.c **** 
 568              		.loc 1 861 46 view .LVU207
 569 0034 0CFA05F5 		lsl	r5, ip, r5
 570              	.LBE12:
 571              	.LBE16:
 379:Drivers/STM32F1xx_HAL_Driver/Src/stm32f1xx_hal_dma.c ****     
 572              		.loc 1 379 5 view .LVU208
 573 0038 26F00106 		bic	r6, r6, #1
 574 003c 2660     		str	r6, [r4]
 382:Drivers/STM32F1xx_HAL_Driver/Src/stm32f1xx_hal_dma.c ****     
 575              		.loc 1 382 5 is_stmt 1 view .LVU209
 576              	.LVL27:
 577              	.LBB17:
 578              	.LBI10:
 858:Drivers/STM32F1xx_HAL_Driver/Src/stm32f1xx_hal_dma.c **** {
 579              		.loc 1 858 13 view .LVU210
 580              	.LBB13:
 861:Drivers/STM32F1xx_HAL_Driver/Src/stm32f1xx_hal_dma.c **** 
 581              		.loc 1 861 3 view .LVU211
 861:Drivers/STM32F1xx_HAL_Driver/Src/stm32f1xx_hal_dma.c **** 
 582              		.loc 1 861 7 is_stmt 0 view .LVU212
 583 003e C66B     		ldr	r6, [r0, #60]
 861:Drivers/STM32F1xx_HAL_Driver/Src/stm32f1xx_hal_dma.c **** 
 584              		.loc 1 861 30 view .LVU213
 585 0040 7560     		str	r5, [r6, #4]
 864:Drivers/STM32F1xx_HAL_Driver/Src/stm32f1xx_hal_dma.c **** 
 586              		.loc 1 864 3 is_stmt 1 view .LVU214
 864:Drivers/STM32F1xx_HAL_Driver/Src/stm32f1xx_hal_dma.c **** 
 587              		.loc 1 864 25 is_stmt 0 view .LVU215
ARM GAS  C:\Users\86184\AppData\Local\Temp\ccT1ePg0.s 			page 29


 588 0042 6360     		str	r3, [r4, #4]
 867:Drivers/STM32F1xx_HAL_Driver/Src/stm32f1xx_hal_dma.c ****   {
 589              		.loc 1 867 3 is_stmt 1 view .LVU216
 867:Drivers/STM32F1xx_HAL_Driver/Src/stm32f1xx_hal_dma.c ****   {
 590              		.loc 1 867 5 is_stmt 0 view .LVU217
 591 0044 4368     		ldr	r3, [r0, #4]
 592              	.LVL28:
 867:Drivers/STM32F1xx_HAL_Driver/Src/stm32f1xx_hal_dma.c ****   {
 593              		.loc 1 867 5 view .LVU218
 594 0046 102B     		cmp	r3, #16
 870:Drivers/STM32F1xx_HAL_Driver/Src/stm32f1xx_hal_dma.c **** 
 595              		.loc 1 870 5 is_stmt 1 view .LVU219
 596              	.LBE13:
 597              	.LBE17:
 386:Drivers/STM32F1xx_HAL_Driver/Src/stm32f1xx_hal_dma.c ****     {
 598              		.loc 1 386 7 is_stmt 0 view .LVU220
 599 0048 C36A     		ldr	r3, [r0, #44]
 600              	.LBB18:
 601              	.LBB14:
 870:Drivers/STM32F1xx_HAL_Driver/Src/stm32f1xx_hal_dma.c **** 
 602              		.loc 1 870 26 view .LVU221
 603 004a 0BBF     		itete	eq
 604 004c A260     		streq	r2, [r4, #8]
 873:Drivers/STM32F1xx_HAL_Driver/Src/stm32f1xx_hal_dma.c ****   }
 605              		.loc 1 873 5 is_stmt 1 view .LVU222
 879:Drivers/STM32F1xx_HAL_Driver/Src/stm32f1xx_hal_dma.c **** 
 606              		.loc 1 879 26 is_stmt 0 view .LVU223
 607 004e A160     		strne	r1, [r4, #8]
 873:Drivers/STM32F1xx_HAL_Driver/Src/stm32f1xx_hal_dma.c ****   }
 608              		.loc 1 873 26 view .LVU224
 609 0050 E160     		streq	r1, [r4, #12]
 879:Drivers/STM32F1xx_HAL_Driver/Src/stm32f1xx_hal_dma.c **** 
 610              		.loc 1 879 5 is_stmt 1 view .LVU225
 611              		.loc 1 882 5 view .LVU226
 612              	.LVL29:
 613              		.loc 1 882 5 is_stmt 0 view .LVU227
 614              	.LBE14:
 615              	.LBE18:
 386:Drivers/STM32F1xx_HAL_Driver/Src/stm32f1xx_hal_dma.c ****     {
 616              		.loc 1 386 5 is_stmt 1 view .LVU228
 617              	.LBB19:
 618              	.LBB15:
 619              		.loc 1 882 26 is_stmt 0 view .LVU229
 620 0052 E260     		strne	r2, [r4, #12]
 621              	.LBE15:
 622              	.LBE19:
 386:Drivers/STM32F1xx_HAL_Driver/Src/stm32f1xx_hal_dma.c ****     {
 623              		.loc 1 386 7 view .LVU230
 624 0054 53B1     		cbz	r3, .L42
 389:Drivers/STM32F1xx_HAL_Driver/Src/stm32f1xx_hal_dma.c ****     }
 625              		.loc 1 389 7 is_stmt 1 view .LVU231
 626 0056 2368     		ldr	r3, [r4]
 627 0058 43F00E03 		orr	r3, r3, #14
 628 005c 2360     		str	r3, [r4]
 629              	.LVL30:
 630              	.L43:
 397:Drivers/STM32F1xx_HAL_Driver/Src/stm32f1xx_hal_dma.c ****   }
ARM GAS  C:\Users\86184\AppData\Local\Temp\ccT1ePg0.s 			page 30


 631              		.loc 1 397 5 view .LVU232
 632 005e 2368     		ldr	r3, [r4]
 364:Drivers/STM32F1xx_HAL_Driver/Src/stm32f1xx_hal_dma.c **** 
 633              		.loc 1 364 21 is_stmt 0 view .LVU233
 634 0060 0020     		movs	r0, #0
 635              	.LVL31:
 397:Drivers/STM32F1xx_HAL_Driver/Src/stm32f1xx_hal_dma.c ****   }
 636              		.loc 1 397 5 view .LVU234
 637 0062 43F00103 		orr	r3, r3, #1
 638 0066 2360     		str	r3, [r4]
 639              	.LVL32:
 408:Drivers/STM32F1xx_HAL_Driver/Src/stm32f1xx_hal_dma.c **** 
 640              		.loc 1 408 1 view .LVU235
 641 0068 70BC     		pop	{r4, r5, r6}
 642              	.LCFI13:
 643              		.cfi_remember_state
 644              		.cfi_restore 6
 645              		.cfi_restore 5
 646              		.cfi_restore 4
 647              		.cfi_def_cfa_offset 0
 648 006a 7047     		bx	lr
 649              	.LVL33:
 650              	.L42:
 651              	.LCFI14:
 652              		.cfi_restore_state
 393:Drivers/STM32F1xx_HAL_Driver/Src/stm32f1xx_hal_dma.c ****       __HAL_DMA_ENABLE_IT(hdma, (DMA_IT_TC | DMA_IT_TE));
 653              		.loc 1 393 7 is_stmt 1 view .LVU236
 654 006c 2368     		ldr	r3, [r4]
 655 006e 23F00403 		bic	r3, r3, #4
 656 0072 2360     		str	r3, [r4]
 657              	.LVL34:
 394:Drivers/STM32F1xx_HAL_Driver/Src/stm32f1xx_hal_dma.c ****     }
 658              		.loc 1 394 7 view .LVU237
 659 0074 2368     		ldr	r3, [r4]
 660 0076 43F00A03 		orr	r3, r3, #10
 661 007a 2360     		str	r3, [r4]
 662 007c EFE7     		b	.L43
 663              		.cfi_endproc
 664              	.LFE68:
 666 007e 00BF     		.section	.text.HAL_DMA_Abort,"ax",%progbits
 667              		.align	1
 668              		.p2align 2,,3
 669              		.global	HAL_DMA_Abort
 670              		.syntax unified
 671              		.thumb
 672              		.thumb_func
 674              	HAL_DMA_Abort:
 675              	.LVL35:
 676              	.LFB69:
 417:Drivers/STM32F1xx_HAL_Driver/Src/stm32f1xx_hal_dma.c ****   HAL_StatusTypeDef status = HAL_OK;
 677              		.loc 1 417 1 view -0
 678              		.cfi_startproc
 679              		@ args = 0, pretend = 0, frame = 0
 680              		@ frame_needed = 0, uses_anonymous_args = 0
 681              		@ link register save eliminated.
 418:Drivers/STM32F1xx_HAL_Driver/Src/stm32f1xx_hal_dma.c ****   
 682              		.loc 1 418 3 view .LVU239
ARM GAS  C:\Users\86184\AppData\Local\Temp\ccT1ePg0.s 			page 31


 420:Drivers/STM32F1xx_HAL_Driver/Src/stm32f1xx_hal_dma.c ****   {
 683              		.loc 1 420 3 view .LVU240
 420:Drivers/STM32F1xx_HAL_Driver/Src/stm32f1xx_hal_dma.c ****   {
 684              		.loc 1 420 5 is_stmt 0 view .LVU241
 685 0000 90F82120 		ldrb	r2, [r0, #33]	@ zero_extendqisi2
 417:Drivers/STM32F1xx_HAL_Driver/Src/stm32f1xx_hal_dma.c ****   HAL_StatusTypeDef status = HAL_OK;
 686              		.loc 1 417 1 view .LVU242
 687 0004 0346     		mov	r3, r0
 420:Drivers/STM32F1xx_HAL_Driver/Src/stm32f1xx_hal_dma.c ****   {
 688              		.loc 1 420 5 view .LVU243
 689 0006 022A     		cmp	r2, #2
 690 0008 06D0     		beq	.L51
 423:Drivers/STM32F1xx_HAL_Driver/Src/stm32f1xx_hal_dma.c ****     
 691              		.loc 1 423 5 is_stmt 1 view .LVU244
 423:Drivers/STM32F1xx_HAL_Driver/Src/stm32f1xx_hal_dma.c ****     
 692              		.loc 1 423 21 is_stmt 0 view .LVU245
 693 000a 0422     		movs	r2, #4
 694 000c 9A63     		str	r2, [r3, #56]
 426:Drivers/STM32F1xx_HAL_Driver/Src/stm32f1xx_hal_dma.c ****     
 695              		.loc 1 426 5 is_stmt 1 view .LVU246
 426:Drivers/STM32F1xx_HAL_Driver/Src/stm32f1xx_hal_dma.c ****     
 696              		.loc 1 426 5 view .LVU247
 426:Drivers/STM32F1xx_HAL_Driver/Src/stm32f1xx_hal_dma.c ****     
 697              		.loc 1 426 5 view .LVU248
 428:Drivers/STM32F1xx_HAL_Driver/Src/stm32f1xx_hal_dma.c ****   }
 698              		.loc 1 428 5 view .LVU249
 426:Drivers/STM32F1xx_HAL_Driver/Src/stm32f1xx_hal_dma.c ****     
 699              		.loc 1 426 5 is_stmt 0 view .LVU250
 700 000e 0022     		movs	r2, #0
 428:Drivers/STM32F1xx_HAL_Driver/Src/stm32f1xx_hal_dma.c ****   }
 701              		.loc 1 428 12 view .LVU251
 702 0010 0120     		movs	r0, #1
 703              	.LVL36:
 426:Drivers/STM32F1xx_HAL_Driver/Src/stm32f1xx_hal_dma.c ****     
 704              		.loc 1 426 5 view .LVU252
 705 0012 83F82020 		strb	r2, [r3, #32]
 449:Drivers/STM32F1xx_HAL_Driver/Src/stm32f1xx_hal_dma.c **** 
 706              		.loc 1 449 1 view .LVU253
 707 0016 7047     		bx	lr
 708              	.LVL37:
 709              	.L51:
 434:Drivers/STM32F1xx_HAL_Driver/Src/stm32f1xx_hal_dma.c ****       
 710              		.loc 1 434 5 is_stmt 1 view .LVU254
 440:Drivers/STM32F1xx_HAL_Driver/Src/stm32f1xx_hal_dma.c ****   }
 711              		.loc 1 440 48 is_stmt 0 view .LVU255
 712 0018 4FF0010C 		mov	ip, #1
 434:Drivers/STM32F1xx_HAL_Driver/Src/stm32f1xx_hal_dma.c ****       
 713              		.loc 1 434 5 view .LVU256
 714 001c 1A68     		ldr	r2, [r3]
 448:Drivers/STM32F1xx_HAL_Driver/Src/stm32f1xx_hal_dma.c **** }
 715              		.loc 1 448 10 view .LVU257
 716 001e 0020     		movs	r0, #0
 717              	.LVL38:
 434:Drivers/STM32F1xx_HAL_Driver/Src/stm32f1xx_hal_dma.c ****       
 718              		.loc 1 434 5 view .LVU258
 719 0020 1168     		ldr	r1, [r2]
 720 0022 21F00E01 		bic	r1, r1, #14
ARM GAS  C:\Users\86184\AppData\Local\Temp\ccT1ePg0.s 			page 32


 721 0026 1160     		str	r1, [r2]
 437:Drivers/STM32F1xx_HAL_Driver/Src/stm32f1xx_hal_dma.c ****       
 722              		.loc 1 437 5 is_stmt 1 view .LVU259
 723 0028 1168     		ldr	r1, [r2]
 724 002a 21F00101 		bic	r1, r1, #1
 725 002e 1160     		str	r1, [r2]
 440:Drivers/STM32F1xx_HAL_Driver/Src/stm32f1xx_hal_dma.c ****   }
 726              		.loc 1 440 5 view .LVU260
 440:Drivers/STM32F1xx_HAL_Driver/Src/stm32f1xx_hal_dma.c ****   }
 727              		.loc 1 440 9 is_stmt 0 view .LVU261
 728 0030 D3E90F12 		ldrd	r1, r2, [r3, #60]
 440:Drivers/STM32F1xx_HAL_Driver/Src/stm32f1xx_hal_dma.c ****   }
 729              		.loc 1 440 48 view .LVU262
 730 0034 0CFA02F2 		lsl	r2, ip, r2
 440:Drivers/STM32F1xx_HAL_Driver/Src/stm32f1xx_hal_dma.c ****   }
 731              		.loc 1 440 32 view .LVU263
 732 0038 4A60     		str	r2, [r1, #4]
 443:Drivers/STM32F1xx_HAL_Driver/Src/stm32f1xx_hal_dma.c **** 
 733              		.loc 1 443 3 is_stmt 1 view .LVU264
 426:Drivers/STM32F1xx_HAL_Driver/Src/stm32f1xx_hal_dma.c ****     
 734              		.loc 1 426 5 is_stmt 0 view .LVU265
 735 003a 0022     		movs	r2, #0
 443:Drivers/STM32F1xx_HAL_Driver/Src/stm32f1xx_hal_dma.c **** 
 736              		.loc 1 443 15 view .LVU266
 737 003c 83F821C0 		strb	ip, [r3, #33]
 446:Drivers/STM32F1xx_HAL_Driver/Src/stm32f1xx_hal_dma.c ****   
 738              		.loc 1 446 3 is_stmt 1 view .LVU267
 446:Drivers/STM32F1xx_HAL_Driver/Src/stm32f1xx_hal_dma.c ****   
 739              		.loc 1 446 3 view .LVU268
 446:Drivers/STM32F1xx_HAL_Driver/Src/stm32f1xx_hal_dma.c ****   
 740              		.loc 1 446 3 view .LVU269
 448:Drivers/STM32F1xx_HAL_Driver/Src/stm32f1xx_hal_dma.c **** }
 741              		.loc 1 448 3 view .LVU270
 426:Drivers/STM32F1xx_HAL_Driver/Src/stm32f1xx_hal_dma.c ****     
 742              		.loc 1 426 5 is_stmt 0 view .LVU271
 743 0040 83F82020 		strb	r2, [r3, #32]
 449:Drivers/STM32F1xx_HAL_Driver/Src/stm32f1xx_hal_dma.c **** 
 744              		.loc 1 449 1 view .LVU272
 745 0044 7047     		bx	lr
 746              		.cfi_endproc
 747              	.LFE69:
 749 0046 00BF     		.section	.text.HAL_DMA_Abort_IT,"ax",%progbits
 750              		.align	1
 751              		.p2align 2,,3
 752              		.global	HAL_DMA_Abort_IT
 753              		.syntax unified
 754              		.thumb
 755              		.thumb_func
 757              	HAL_DMA_Abort_IT:
 758              	.LVL39:
 759              	.LFB70:
 458:Drivers/STM32F1xx_HAL_Driver/Src/stm32f1xx_hal_dma.c ****   HAL_StatusTypeDef status = HAL_OK;
 760              		.loc 1 458 1 is_stmt 1 view -0
 761              		.cfi_startproc
 762              		@ args = 0, pretend = 0, frame = 0
 763              		@ frame_needed = 0, uses_anonymous_args = 0
 459:Drivers/STM32F1xx_HAL_Driver/Src/stm32f1xx_hal_dma.c ****   
ARM GAS  C:\Users\86184\AppData\Local\Temp\ccT1ePg0.s 			page 33


 764              		.loc 1 459 3 view .LVU274
 461:Drivers/STM32F1xx_HAL_Driver/Src/stm32f1xx_hal_dma.c ****   {
 765              		.loc 1 461 3 view .LVU275
 458:Drivers/STM32F1xx_HAL_Driver/Src/stm32f1xx_hal_dma.c ****   HAL_StatusTypeDef status = HAL_OK;
 766              		.loc 1 458 1 is_stmt 0 view .LVU276
 767 0000 08B5     		push	{r3, lr}
 768              	.LCFI15:
 769              		.cfi_def_cfa_offset 8
 770              		.cfi_offset 3, -8
 771              		.cfi_offset 14, -4
 461:Drivers/STM32F1xx_HAL_Driver/Src/stm32f1xx_hal_dma.c ****   {
 772              		.loc 1 461 5 view .LVU277
 773 0002 90F82120 		ldrb	r2, [r0, #33]	@ zero_extendqisi2
 458:Drivers/STM32F1xx_HAL_Driver/Src/stm32f1xx_hal_dma.c ****   HAL_StatusTypeDef status = HAL_OK;
 774              		.loc 1 458 1 view .LVU278
 775 0006 0346     		mov	r3, r0
 461:Drivers/STM32F1xx_HAL_Driver/Src/stm32f1xx_hal_dma.c ****   {
 776              		.loc 1 461 5 view .LVU279
 777 0008 022A     		cmp	r2, #2
 778 000a 03D0     		beq	.L54
 464:Drivers/STM32F1xx_HAL_Driver/Src/stm32f1xx_hal_dma.c ****         
 779              		.loc 1 464 5 is_stmt 1 view .LVU280
 464:Drivers/STM32F1xx_HAL_Driver/Src/stm32f1xx_hal_dma.c ****         
 780              		.loc 1 464 21 is_stmt 0 view .LVU281
 781 000c 0422     		movs	r2, #4
 466:Drivers/STM32F1xx_HAL_Driver/Src/stm32f1xx_hal_dma.c ****   }
 782              		.loc 1 466 12 view .LVU282
 783 000e 0120     		movs	r0, #1
 784              	.LVL40:
 464:Drivers/STM32F1xx_HAL_Driver/Src/stm32f1xx_hal_dma.c ****         
 785              		.loc 1 464 21 view .LVU283
 786 0010 9A63     		str	r2, [r3, #56]
 466:Drivers/STM32F1xx_HAL_Driver/Src/stm32f1xx_hal_dma.c ****   }
 787              		.loc 1 466 5 is_stmt 1 view .LVU284
 788              	.LVL41:
 491:Drivers/STM32F1xx_HAL_Driver/Src/stm32f1xx_hal_dma.c **** }
 789              		.loc 1 491 3 view .LVU285
 492:Drivers/STM32F1xx_HAL_Driver/Src/stm32f1xx_hal_dma.c **** 
 790              		.loc 1 492 1 is_stmt 0 view .LVU286
 791 0012 08BD     		pop	{r3, pc}
 792              	.LVL42:
 793              	.L54:
 471:Drivers/STM32F1xx_HAL_Driver/Src/stm32f1xx_hal_dma.c **** 
 794              		.loc 1 471 5 is_stmt 1 view .LVU287
 795 0014 0268     		ldr	r2, [r0]
 477:Drivers/STM32F1xx_HAL_Driver/Src/stm32f1xx_hal_dma.c **** 
 796              		.loc 1 477 5 is_stmt 0 view .LVU288
 797 0016 4448     		ldr	r0, .L87
 798              	.LVL43:
 471:Drivers/STM32F1xx_HAL_Driver/Src/stm32f1xx_hal_dma.c **** 
 799              		.loc 1 471 5 view .LVU289
 800 0018 1168     		ldr	r1, [r2]
 477:Drivers/STM32F1xx_HAL_Driver/Src/stm32f1xx_hal_dma.c **** 
 801              		.loc 1 477 5 view .LVU290
 802 001a 8242     		cmp	r2, r0
 471:Drivers/STM32F1xx_HAL_Driver/Src/stm32f1xx_hal_dma.c **** 
 803              		.loc 1 471 5 view .LVU291
ARM GAS  C:\Users\86184\AppData\Local\Temp\ccT1ePg0.s 			page 34


 804 001c 21F00E01 		bic	r1, r1, #14
 805 0020 1160     		str	r1, [r2]
 474:Drivers/STM32F1xx_HAL_Driver/Src/stm32f1xx_hal_dma.c **** 
 806              		.loc 1 474 5 is_stmt 1 view .LVU292
 807 0022 1168     		ldr	r1, [r2]
 808 0024 21F00101 		bic	r1, r1, #1
 809 0028 1160     		str	r1, [r2]
 477:Drivers/STM32F1xx_HAL_Driver/Src/stm32f1xx_hal_dma.c **** 
 810              		.loc 1 477 5 view .LVU293
 811 002a 4049     		ldr	r1, .L87+4
 812 002c 24D9     		bls	.L56
 477:Drivers/STM32F1xx_HAL_Driver/Src/stm32f1xx_hal_dma.c **** 
 813              		.loc 1 477 5 is_stmt 0 discriminator 1 view .LVU294
 814 002e 8A42     		cmp	r2, r1
 815 0030 53D0     		beq	.L68
 477:Drivers/STM32F1xx_HAL_Driver/Src/stm32f1xx_hal_dma.c **** 
 816              		.loc 1 477 5 discriminator 3 view .LVU295
 817 0032 1431     		adds	r1, r1, #20
 818 0034 8A42     		cmp	r2, r1
 819 0036 5CD0     		beq	.L69
 477:Drivers/STM32F1xx_HAL_Driver/Src/stm32f1xx_hal_dma.c **** 
 820              		.loc 1 477 5 discriminator 5 view .LVU296
 821 0038 1431     		adds	r1, r1, #20
 822 003a 8A42     		cmp	r2, r1
 823 003c 5BD0     		beq	.L70
 477:Drivers/STM32F1xx_HAL_Driver/Src/stm32f1xx_hal_dma.c **** 
 824              		.loc 1 477 5 discriminator 7 view .LVU297
 825 003e 1431     		adds	r1, r1, #20
 826 0040 8A42     		cmp	r2, r1
 827 0042 51D0     		beq	.L64
 477:Drivers/STM32F1xx_HAL_Driver/Src/stm32f1xx_hal_dma.c **** 
 828              		.loc 1 477 5 discriminator 9 view .LVU298
 829 0044 1431     		adds	r1, r1, #20
 830 0046 8A42     		cmp	r2, r1
 831 0048 5ED0     		beq	.L65
 477:Drivers/STM32F1xx_HAL_Driver/Src/stm32f1xx_hal_dma.c **** 
 832              		.loc 1 477 5 discriminator 11 view .LVU299
 833 004a 1431     		adds	r1, r1, #20
 834 004c 8A42     		cmp	r2, r1
 835 004e 61D0     		beq	.L66
 477:Drivers/STM32F1xx_HAL_Driver/Src/stm32f1xx_hal_dma.c **** 
 836              		.loc 1 477 5 discriminator 13 view .LVU300
 837 0050 8242     		cmp	r2, r0
 838 0052 65D0     		beq	.L67
 477:Drivers/STM32F1xx_HAL_Driver/Src/stm32f1xx_hal_dma.c **** 
 839              		.loc 1 477 5 discriminator 15 view .LVU301
 840 0054 01F56771 		add	r1, r1, #924
 841 0058 8A42     		cmp	r2, r1
 842 005a 3ED0     		beq	.L68
 477:Drivers/STM32F1xx_HAL_Driver/Src/stm32f1xx_hal_dma.c **** 
 843              		.loc 1 477 5 discriminator 17 view .LVU302
 844 005c 1431     		adds	r1, r1, #20
 845 005e 8A42     		cmp	r2, r1
 846 0060 47D0     		beq	.L69
 477:Drivers/STM32F1xx_HAL_Driver/Src/stm32f1xx_hal_dma.c **** 
 847              		.loc 1 477 5 discriminator 19 view .LVU303
 848 0062 1431     		adds	r1, r1, #20
ARM GAS  C:\Users\86184\AppData\Local\Temp\ccT1ePg0.s 			page 35


 849 0064 8A42     		cmp	r2, r1
 850 0066 46D0     		beq	.L70
 477:Drivers/STM32F1xx_HAL_Driver/Src/stm32f1xx_hal_dma.c **** 
 851              		.loc 1 477 5 discriminator 21 view .LVU304
 852 0068 1431     		adds	r1, r1, #20
 853 006a 8A42     		cmp	r2, r1
 854 006c 14BF     		ite	ne
 855 006e 4FF48032 		movne	r2, #65536
 856 0072 4FF48052 		moveq	r2, #4096
 857 0076 31E0     		b	.L57
 858              	.L56:
 477:Drivers/STM32F1xx_HAL_Driver/Src/stm32f1xx_hal_dma.c **** 
 859              		.loc 1 477 5 discriminator 2 view .LVU305
 860 0078 8A42     		cmp	r2, r1
 861 007a 22D0     		beq	.L79
 477:Drivers/STM32F1xx_HAL_Driver/Src/stm32f1xx_hal_dma.c **** 
 862              		.loc 1 477 5 discriminator 47 view .LVU306
 863 007c 1431     		adds	r1, r1, #20
 864 007e 8A42     		cmp	r2, r1
 865 0080 35D0     		beq	.L80
 477:Drivers/STM32F1xx_HAL_Driver/Src/stm32f1xx_hal_dma.c **** 
 866              		.loc 1 477 5 discriminator 49 view .LVU307
 867 0082 1431     		adds	r1, r1, #20
 868 0084 8A42     		cmp	r2, r1
 869 0086 39D0     		beq	.L81
 477:Drivers/STM32F1xx_HAL_Driver/Src/stm32f1xx_hal_dma.c **** 
 870              		.loc 1 477 5 discriminator 51 view .LVU308
 871 0088 1431     		adds	r1, r1, #20
 872 008a 8A42     		cmp	r2, r1
 873 008c 29D0     		beq	.L75
 477:Drivers/STM32F1xx_HAL_Driver/Src/stm32f1xx_hal_dma.c **** 
 874              		.loc 1 477 5 discriminator 53 view .LVU309
 875 008e 1431     		adds	r1, r1, #20
 876 0090 8A42     		cmp	r2, r1
 877 0092 36D0     		beq	.L76
 477:Drivers/STM32F1xx_HAL_Driver/Src/stm32f1xx_hal_dma.c **** 
 878              		.loc 1 477 5 discriminator 55 view .LVU310
 879 0094 1431     		adds	r1, r1, #20
 880 0096 8A42     		cmp	r2, r1
 881 0098 39D0     		beq	.L77
 477:Drivers/STM32F1xx_HAL_Driver/Src/stm32f1xx_hal_dma.c **** 
 882              		.loc 1 477 5 discriminator 57 view .LVU311
 883 009a 8242     		cmp	r2, r0
 884 009c 3DD0     		beq	.L78
 477:Drivers/STM32F1xx_HAL_Driver/Src/stm32f1xx_hal_dma.c **** 
 885              		.loc 1 477 5 discriminator 59 view .LVU312
 886 009e 01F56771 		add	r1, r1, #924
 887 00a2 8A42     		cmp	r2, r1
 888 00a4 0DD0     		beq	.L79
 477:Drivers/STM32F1xx_HAL_Driver/Src/stm32f1xx_hal_dma.c **** 
 889              		.loc 1 477 5 discriminator 61 view .LVU313
 890 00a6 1431     		adds	r1, r1, #20
 891 00a8 8A42     		cmp	r2, r1
 892 00aa 20D0     		beq	.L80
 477:Drivers/STM32F1xx_HAL_Driver/Src/stm32f1xx_hal_dma.c **** 
 893              		.loc 1 477 5 discriminator 63 view .LVU314
 894 00ac 1431     		adds	r1, r1, #20
ARM GAS  C:\Users\86184\AppData\Local\Temp\ccT1ePg0.s 			page 36


 895 00ae 8A42     		cmp	r2, r1
 896 00b0 24D0     		beq	.L81
 477:Drivers/STM32F1xx_HAL_Driver/Src/stm32f1xx_hal_dma.c **** 
 897              		.loc 1 477 5 discriminator 65 view .LVU315
 898 00b2 1431     		adds	r1, r1, #20
 899 00b4 8A42     		cmp	r2, r1
 900 00b6 14BF     		ite	ne
 901 00b8 4FF48032 		movne	r2, #65536
 902 00bc 4FF48052 		moveq	r2, #4096
 903 00c0 00E0     		b	.L59
 904              	.L79:
 477:Drivers/STM32F1xx_HAL_Driver/Src/stm32f1xx_hal_dma.c **** 
 905              		.loc 1 477 5 view .LVU316
 906 00c2 0122     		movs	r2, #1
 907              	.L59:
 477:Drivers/STM32F1xx_HAL_Driver/Src/stm32f1xx_hal_dma.c **** 
 908              		.loc 1 477 5 discriminator 90 view .LVU317
 909 00c4 1A49     		ldr	r1, .L87+8
 910 00c6 4A60     		str	r2, [r1, #4]
 911              	.L58:
 480:Drivers/STM32F1xx_HAL_Driver/Src/stm32f1xx_hal_dma.c **** 
 912              		.loc 1 480 5 is_stmt 1 view .LVU318
 483:Drivers/STM32F1xx_HAL_Driver/Src/stm32f1xx_hal_dma.c **** 
 913              		.loc 1 483 5 view .LVU319
 483:Drivers/STM32F1xx_HAL_Driver/Src/stm32f1xx_hal_dma.c **** 
 914              		.loc 1 483 5 view .LVU320
 915 00c8 4FF48071 		mov	r1, #256
 486:Drivers/STM32F1xx_HAL_Driver/Src/stm32f1xx_hal_dma.c ****     {
 916              		.loc 1 486 12 is_stmt 0 view .LVU321
 917 00cc 5A6B     		ldr	r2, [r3, #52]
 483:Drivers/STM32F1xx_HAL_Driver/Src/stm32f1xx_hal_dma.c **** 
 918              		.loc 1 483 5 view .LVU322
 919 00ce 1984     		strh	r1, [r3, #32]	@ movhi
 483:Drivers/STM32F1xx_HAL_Driver/Src/stm32f1xx_hal_dma.c **** 
 920              		.loc 1 483 5 is_stmt 1 view .LVU323
 486:Drivers/STM32F1xx_HAL_Driver/Src/stm32f1xx_hal_dma.c ****     {
 921              		.loc 1 486 5 view .LVU324
 486:Drivers/STM32F1xx_HAL_Driver/Src/stm32f1xx_hal_dma.c ****     {
 922              		.loc 1 486 7 is_stmt 0 view .LVU325
 923 00d0 0AB1     		cbz	r2, .L60
 488:Drivers/STM32F1xx_HAL_Driver/Src/stm32f1xx_hal_dma.c ****     } 
 924              		.loc 1 488 7 is_stmt 1 view .LVU326
 925 00d2 1846     		mov	r0, r3
 926 00d4 9047     		blx	r2
 927              	.LVL44:
 928              	.L60:
 459:Drivers/STM32F1xx_HAL_Driver/Src/stm32f1xx_hal_dma.c ****   
 929              		.loc 1 459 21 is_stmt 0 view .LVU327
 930 00d6 0020     		movs	r0, #0
 931              	.LVL45:
 491:Drivers/STM32F1xx_HAL_Driver/Src/stm32f1xx_hal_dma.c **** }
 932              		.loc 1 491 3 is_stmt 1 view .LVU328
 492:Drivers/STM32F1xx_HAL_Driver/Src/stm32f1xx_hal_dma.c **** 
 933              		.loc 1 492 1 is_stmt 0 view .LVU329
 934 00d8 08BD     		pop	{r3, pc}
 935              	.LVL46:
 936              	.L68:
ARM GAS  C:\Users\86184\AppData\Local\Temp\ccT1ePg0.s 			page 37


 477:Drivers/STM32F1xx_HAL_Driver/Src/stm32f1xx_hal_dma.c **** 
 937              		.loc 1 477 5 view .LVU330
 938 00da 0122     		movs	r2, #1
 939              	.L57:
 477:Drivers/STM32F1xx_HAL_Driver/Src/stm32f1xx_hal_dma.c **** 
 940              		.loc 1 477 5 discriminator 46 view .LVU331
 941 00dc 1549     		ldr	r1, .L87+12
 942 00de 4A60     		str	r2, [r1, #4]
 943 00e0 F2E7     		b	.L58
 944              	.L75:
 477:Drivers/STM32F1xx_HAL_Driver/Src/stm32f1xx_hal_dma.c **** 
 945              		.loc 1 477 5 view .LVU332
 946 00e2 4FF48052 		mov	r2, #4096
 947 00e6 EDE7     		b	.L59
 948              	.L64:
 949 00e8 4FF48052 		mov	r2, #4096
 950 00ec F6E7     		b	.L57
 951              	.L80:
 952 00ee 1022     		movs	r2, #16
 953 00f0 E8E7     		b	.L59
 954              	.L69:
 955 00f2 1022     		movs	r2, #16
 956 00f4 F2E7     		b	.L57
 957              	.L70:
 958 00f6 4FF48072 		mov	r2, #256
 959 00fa EFE7     		b	.L57
 960              	.L81:
 961 00fc 4FF48072 		mov	r2, #256
 962 0100 E0E7     		b	.L59
 963              	.L76:
 964 0102 4FF48032 		mov	r2, #65536
 965 0106 DDE7     		b	.L59
 966              	.L65:
 967 0108 4FF48032 		mov	r2, #65536
 968 010c E6E7     		b	.L57
 969              	.L77:
 970 010e 4FF48012 		mov	r2, #1048576
 971 0112 D7E7     		b	.L59
 972              	.L66:
 973 0114 4FF48012 		mov	r2, #1048576
 974 0118 E0E7     		b	.L57
 975              	.L78:
 976 011a 4FF08072 		mov	r2, #16777216
 977 011e D1E7     		b	.L59
 978              	.L67:
 979 0120 4FF08072 		mov	r2, #16777216
 980 0124 DAE7     		b	.L57
 981              	.L88:
 982 0126 00BF     		.align	2
 983              	.L87:
 984 0128 80000240 		.word	1073873024
 985 012c 08000240 		.word	1073872904
 986 0130 00000240 		.word	1073872896
 987 0134 00040240 		.word	1073873920
 988              		.cfi_endproc
 989              	.LFE70:
 991              		.section	.text.HAL_DMA_PollForTransfer,"ax",%progbits
ARM GAS  C:\Users\86184\AppData\Local\Temp\ccT1ePg0.s 			page 38


 992              		.align	1
 993              		.p2align 2,,3
 994              		.global	HAL_DMA_PollForTransfer
 995              		.syntax unified
 996              		.thumb
 997              		.thumb_func
 999              	HAL_DMA_PollForTransfer:
 1000              	.LVL47:
 1001              	.LFB71:
 503:Drivers/STM32F1xx_HAL_Driver/Src/stm32f1xx_hal_dma.c ****   uint32_t temp;
 1002              		.loc 1 503 1 is_stmt 1 view -0
 1003              		.cfi_startproc
 1004              		@ args = 0, pretend = 0, frame = 8
 1005              		@ frame_needed = 0, uses_anonymous_args = 0
 504:Drivers/STM32F1xx_HAL_Driver/Src/stm32f1xx_hal_dma.c ****   uint32_t tickstart = 0U;
 1006              		.loc 1 504 3 view .LVU334
 505:Drivers/STM32F1xx_HAL_Driver/Src/stm32f1xx_hal_dma.c **** 
 1007              		.loc 1 505 3 view .LVU335
 507:Drivers/STM32F1xx_HAL_Driver/Src/stm32f1xx_hal_dma.c ****   {
 1008              		.loc 1 507 3 view .LVU336
 503:Drivers/STM32F1xx_HAL_Driver/Src/stm32f1xx_hal_dma.c ****   uint32_t temp;
 1009              		.loc 1 503 1 is_stmt 0 view .LVU337
 1010 0000 2DE9F04F 		push	{r4, r5, r6, r7, r8, r9, r10, fp, lr}
 1011              	.LCFI16:
 1012              		.cfi_def_cfa_offset 36
 1013              		.cfi_offset 4, -36
 1014              		.cfi_offset 5, -32
 1015              		.cfi_offset 6, -28
 1016              		.cfi_offset 7, -24
 1017              		.cfi_offset 8, -20
 1018              		.cfi_offset 9, -16
 1019              		.cfi_offset 10, -12
 1020              		.cfi_offset 11, -8
 1021              		.cfi_offset 14, -4
 507:Drivers/STM32F1xx_HAL_Driver/Src/stm32f1xx_hal_dma.c ****   {
 1022              		.loc 1 507 5 view .LVU338
 1023 0004 90F82160 		ldrb	r6, [r0, #33]	@ zero_extendqisi2
 503:Drivers/STM32F1xx_HAL_Driver/Src/stm32f1xx_hal_dma.c ****   uint32_t temp;
 1024              		.loc 1 503 1 view .LVU339
 1025 0008 0546     		mov	r5, r0
 507:Drivers/STM32F1xx_HAL_Driver/Src/stm32f1xx_hal_dma.c ****   {
 1026              		.loc 1 507 5 view .LVU340
 1027 000a 022E     		cmp	r6, #2
 503:Drivers/STM32F1xx_HAL_Driver/Src/stm32f1xx_hal_dma.c ****   uint32_t temp;
 1028              		.loc 1 503 1 view .LVU341
 1029 000c 83B0     		sub	sp, sp, #12
 1030              	.LCFI17:
 1031              		.cfi_def_cfa_offset 48
 507:Drivers/STM32F1xx_HAL_Driver/Src/stm32f1xx_hal_dma.c ****   {
 1032              		.loc 1 507 5 view .LVU342
 1033 000e 08D0     		beq	.L90
 510:Drivers/STM32F1xx_HAL_Driver/Src/stm32f1xx_hal_dma.c ****     __HAL_UNLOCK(hdma);
 1034              		.loc 1 510 5 is_stmt 1 view .LVU343
 510:Drivers/STM32F1xx_HAL_Driver/Src/stm32f1xx_hal_dma.c ****     __HAL_UNLOCK(hdma);
 1035              		.loc 1 510 21 is_stmt 0 view .LVU344
 1036 0010 0422     		movs	r2, #4
 1037              	.LVL48:
ARM GAS  C:\Users\86184\AppData\Local\Temp\ccT1ePg0.s 			page 39


 511:Drivers/STM32F1xx_HAL_Driver/Src/stm32f1xx_hal_dma.c ****     return HAL_ERROR;
 1038              		.loc 1 511 5 view .LVU345
 1039 0012 0023     		movs	r3, #0
 510:Drivers/STM32F1xx_HAL_Driver/Src/stm32f1xx_hal_dma.c ****     __HAL_UNLOCK(hdma);
 1040              		.loc 1 510 21 view .LVU346
 1041 0014 8263     		str	r2, [r0, #56]
 511:Drivers/STM32F1xx_HAL_Driver/Src/stm32f1xx_hal_dma.c ****     return HAL_ERROR;
 1042              		.loc 1 511 5 is_stmt 1 view .LVU347
 511:Drivers/STM32F1xx_HAL_Driver/Src/stm32f1xx_hal_dma.c ****     return HAL_ERROR;
 1043              		.loc 1 511 5 view .LVU348
 1044 0016 80F82030 		strb	r3, [r0, #32]
 511:Drivers/STM32F1xx_HAL_Driver/Src/stm32f1xx_hal_dma.c ****     return HAL_ERROR;
 1045              		.loc 1 511 5 view .LVU349
 512:Drivers/STM32F1xx_HAL_Driver/Src/stm32f1xx_hal_dma.c ****   }
 1046              		.loc 1 512 5 view .LVU350
 1047              	.LVL49:
 1048              	.L91:
 512:Drivers/STM32F1xx_HAL_Driver/Src/stm32f1xx_hal_dma.c ****   }
 1049              		.loc 1 512 12 is_stmt 0 view .LVU351
 1050 001a 0120     		movs	r0, #1
 595:Drivers/STM32F1xx_HAL_Driver/Src/stm32f1xx_hal_dma.c **** 
 1051              		.loc 1 595 1 view .LVU352
 1052 001c 03B0     		add	sp, sp, #12
 1053              	.LCFI18:
 1054              		.cfi_remember_state
 1055              		.cfi_def_cfa_offset 36
 1056              		@ sp needed
 1057 001e BDE8F08F 		pop	{r4, r5, r6, r7, r8, r9, r10, fp, pc}
 1058              	.LVL50:
 1059              	.L90:
 1060              	.LCFI19:
 1061              		.cfi_restore_state
 516:Drivers/STM32F1xx_HAL_Driver/Src/stm32f1xx_hal_dma.c ****   {
 1062              		.loc 1 516 3 is_stmt 1 view .LVU353
 516:Drivers/STM32F1xx_HAL_Driver/Src/stm32f1xx_hal_dma.c ****   {
 1063              		.loc 1 516 21 is_stmt 0 view .LVU354
 1064 0022 0368     		ldr	r3, [r0]
 1065 0024 1446     		mov	r4, r2
 516:Drivers/STM32F1xx_HAL_Driver/Src/stm32f1xx_hal_dma.c ****   {
 1066              		.loc 1 516 31 view .LVU355
 1067 0026 1A68     		ldr	r2, [r3]
 1068              	.LVL51:
 516:Drivers/STM32F1xx_HAL_Driver/Src/stm32f1xx_hal_dma.c ****   {
 1069              		.loc 1 516 6 view .LVU356
 1070 0028 9706     		lsls	r7, r2, #26
 1071 002a 77D4     		bmi	.L220
 523:Drivers/STM32F1xx_HAL_Driver/Src/stm32f1xx_hal_dma.c ****   {
 1072              		.loc 1 523 3 is_stmt 1 view .LVU357
 1073 002c 0F46     		mov	r7, r1
 526:Drivers/STM32F1xx_HAL_Driver/Src/stm32f1xx_hal_dma.c ****   }
 1074              		.loc 1 526 12 is_stmt 0 view .LVU358
 1075 002e A94A     		ldr	r2, .L227
 523:Drivers/STM32F1xx_HAL_Driver/Src/stm32f1xx_hal_dma.c ****   {
 1076              		.loc 1 523 5 view .LVU359
 1077 0030 0029     		cmp	r1, #0
 1078 0032 77D1     		bne	.L94
 526:Drivers/STM32F1xx_HAL_Driver/Src/stm32f1xx_hal_dma.c ****   }
ARM GAS  C:\Users\86184\AppData\Local\Temp\ccT1ePg0.s 			page 40


 1079              		.loc 1 526 5 is_stmt 1 view .LVU360
 526:Drivers/STM32F1xx_HAL_Driver/Src/stm32f1xx_hal_dma.c ****   }
 1080              		.loc 1 526 12 is_stmt 0 view .LVU361
 1081 0034 9342     		cmp	r3, r2
 1082 0036 2BD0     		beq	.L95
 526:Drivers/STM32F1xx_HAL_Driver/Src/stm32f1xx_hal_dma.c ****   }
 1083              		.loc 1 526 12 discriminator 1 view .LVU362
 1084 0038 1432     		adds	r2, r2, #20
 1085 003a 9342     		cmp	r3, r2
 1086 003c 00F00082 		beq	.L129
 526:Drivers/STM32F1xx_HAL_Driver/Src/stm32f1xx_hal_dma.c ****   }
 1087              		.loc 1 526 12 discriminator 3 view .LVU363
 1088 0040 1432     		adds	r2, r2, #20
 1089 0042 9342     		cmp	r3, r2
 1090 0044 00F0FE81 		beq	.L130
 526:Drivers/STM32F1xx_HAL_Driver/Src/stm32f1xx_hal_dma.c ****   }
 1091              		.loc 1 526 12 discriminator 5 view .LVU364
 1092 0048 1432     		adds	r2, r2, #20
 1093 004a 9342     		cmp	r3, r2
 1094 004c 00F0F381 		beq	.L124
 526:Drivers/STM32F1xx_HAL_Driver/Src/stm32f1xx_hal_dma.c ****   }
 1095              		.loc 1 526 12 discriminator 7 view .LVU365
 1096 0050 1432     		adds	r2, r2, #20
 1097 0052 9342     		cmp	r3, r2
 1098 0054 00F00782 		beq	.L125
 526:Drivers/STM32F1xx_HAL_Driver/Src/stm32f1xx_hal_dma.c ****   }
 1099              		.loc 1 526 12 discriminator 9 view .LVU366
 1100 0058 1432     		adds	r2, r2, #20
 1101 005a 9342     		cmp	r3, r2
 1102 005c 00F00E82 		beq	.L126
 526:Drivers/STM32F1xx_HAL_Driver/Src/stm32f1xx_hal_dma.c ****   }
 1103              		.loc 1 526 12 discriminator 11 view .LVU367
 1104 0060 1432     		adds	r2, r2, #20
 1105 0062 9342     		cmp	r3, r2
 1106 0064 00F01C82 		beq	.L127
 526:Drivers/STM32F1xx_HAL_Driver/Src/stm32f1xx_hal_dma.c ****   }
 1107              		.loc 1 526 12 discriminator 13 view .LVU368
 1108 0068 02F56272 		add	r2, r2, #904
 1109 006c 9342     		cmp	r3, r2
 1110 006e 00F02082 		beq	.L128
 526:Drivers/STM32F1xx_HAL_Driver/Src/stm32f1xx_hal_dma.c ****   }
 1111              		.loc 1 526 12 discriminator 15 view .LVU369
 1112 0072 1432     		adds	r2, r2, #20
 1113 0074 9342     		cmp	r3, r2
 1114 0076 00F0E381 		beq	.L129
 526:Drivers/STM32F1xx_HAL_Driver/Src/stm32f1xx_hal_dma.c ****   }
 1115              		.loc 1 526 12 discriminator 17 view .LVU370
 1116 007a 1432     		adds	r2, r2, #20
 1117 007c 9342     		cmp	r3, r2
 1118 007e 00F0E181 		beq	.L130
 526:Drivers/STM32F1xx_HAL_Driver/Src/stm32f1xx_hal_dma.c ****   }
 1119              		.loc 1 526 12 discriminator 19 view .LVU371
 1120 0082 954E     		ldr	r6, .L227+4
 1121 0084 B342     		cmp	r3, r6
 1122 0086 14BF     		ite	ne
 1123 0088 4FF40036 		movne	r6, #131072
 1124 008c 4FF40056 		moveq	r6, #8192
ARM GAS  C:\Users\86184\AppData\Local\Temp\ccT1ePg0.s 			page 41


 1125              	.L95:
 1126              	.LVL52:
 535:Drivers/STM32F1xx_HAL_Driver/Src/stm32f1xx_hal_dma.c **** 
 1127              		.loc 1 535 3 is_stmt 1 view .LVU372
 535:Drivers/STM32F1xx_HAL_Driver/Src/stm32f1xx_hal_dma.c **** 
 1128              		.loc 1 535 15 is_stmt 0 view .LVU373
 1129 0090 FFF7FEFF 		bl	HAL_GetTick
 1130              	.LVL53:
 537:Drivers/STM32F1xx_HAL_Driver/Src/stm32f1xx_hal_dma.c ****   {
 1131              		.loc 1 537 3 is_stmt 1 view .LVU374
 1132 0094 0190     		str	r0, [sp, #4]
 1133              	.LVL54:
 1134              	.L96:
 537:Drivers/STM32F1xx_HAL_Driver/Src/stm32f1xx_hal_dma.c ****   {
 1135              		.loc 1 537 9 is_stmt 0 view .LVU375
 1136 0096 2B68     		ldr	r3, [r5]
 537:Drivers/STM32F1xx_HAL_Driver/Src/stm32f1xx_hal_dma.c ****   {
 1137              		.loc 1 537 40 is_stmt 1 view .LVU376
 1138 0098 904A     		ldr	r2, .L227+8
 1139 009a 9342     		cmp	r3, r2
 1140 009c 77D8     		bhi	.L214
 539:Drivers/STM32F1xx_HAL_Driver/Src/stm32f1xx_hal_dma.c ****     {
 1141              		.loc 1 539 9 is_stmt 0 view .LVU377
 1142 009e DFF834C2 		ldr	ip, .L227
 1143 00a2 DFF83CE2 		ldr	lr, .L227+12
 1144 00a6 DFF83C82 		ldr	r8, .L227+16
 1145 00aa DFF83C92 		ldr	r9, .L227+20
 1146 00ae DFF83CA2 		ldr	r10, .L227+24
 1147 00b2 DFF83CB2 		ldr	fp, .L227+28
 537:Drivers/STM32F1xx_HAL_Driver/Src/stm32f1xx_hal_dma.c ****   {
 1148              		.loc 1 537 9 view .LVU378
 1149 00b6 803A     		subs	r2, r2, #128
 1150 00b8 27E0     		b	.L103
 1151              	.L222:
 539:Drivers/STM32F1xx_HAL_Driver/Src/stm32f1xx_hal_dma.c ****     {
 1152              		.loc 1 539 9 discriminator 48 view .LVU379
 1153 00ba 7345     		cmp	r3, lr
 1154 00bc 62D0     		beq	.L162
 539:Drivers/STM32F1xx_HAL_Driver/Src/stm32f1xx_hal_dma.c ****     {
 1155              		.loc 1 539 9 discriminator 50 view .LVU380
 1156 00be 4345     		cmp	r3, r8
 1157 00c0 62D0     		beq	.L163
 539:Drivers/STM32F1xx_HAL_Driver/Src/stm32f1xx_hal_dma.c ****     {
 1158              		.loc 1 539 9 discriminator 52 view .LVU381
 1159 00c2 4B45     		cmp	r3, r9
 1160 00c4 00F0A480 		beq	.L157
 539:Drivers/STM32F1xx_HAL_Driver/Src/stm32f1xx_hal_dma.c ****     {
 1161              		.loc 1 539 9 discriminator 54 view .LVU382
 1162 00c8 5345     		cmp	r3, r10
 1163 00ca 00F0B180 		beq	.L158
 539:Drivers/STM32F1xx_HAL_Driver/Src/stm32f1xx_hal_dma.c ****     {
 1164              		.loc 1 539 9 discriminator 56 view .LVU383
 1165 00ce 5B45     		cmp	r3, fp
 1166 00d0 00F0C780 		beq	.L159
 539:Drivers/STM32F1xx_HAL_Driver/Src/stm32f1xx_hal_dma.c ****     {
 1167              		.loc 1 539 9 discriminator 58 view .LVU384
 1168 00d4 8149     		ldr	r1, .L227+8
ARM GAS  C:\Users\86184\AppData\Local\Temp\ccT1ePg0.s 			page 42


 1169 00d6 8B42     		cmp	r3, r1
 1170 00d8 00F04681 		beq	.L160
 539:Drivers/STM32F1xx_HAL_Driver/Src/stm32f1xx_hal_dma.c ****     {
 1171              		.loc 1 539 9 discriminator 60 view .LVU385
 1172 00dc 01F56271 		add	r1, r1, #904
 1173 00e0 8B42     		cmp	r3, r1
 1174 00e2 19D0     		beq	.L161
 539:Drivers/STM32F1xx_HAL_Driver/Src/stm32f1xx_hal_dma.c ****     {
 1175              		.loc 1 539 9 discriminator 62 view .LVU386
 1176 00e4 1431     		adds	r1, r1, #20
 1177 00e6 8B42     		cmp	r3, r1
 1178 00e8 4CD0     		beq	.L162
 539:Drivers/STM32F1xx_HAL_Driver/Src/stm32f1xx_hal_dma.c ****     {
 1179              		.loc 1 539 9 discriminator 64 view .LVU387
 1180 00ea 1431     		adds	r1, r1, #20
 1181 00ec 8B42     		cmp	r3, r1
 1182 00ee 4BD0     		beq	.L163
 539:Drivers/STM32F1xx_HAL_Driver/Src/stm32f1xx_hal_dma.c ****     {
 1183              		.loc 1 539 9 discriminator 66 view .LVU388
 1184 00f0 1431     		adds	r1, r1, #20
 1185 00f2 8B42     		cmp	r3, r1
 1186 00f4 14BF     		ite	ne
 1187 00f6 4FF40021 		movne	r1, #524288
 1188 00fa 4FF40041 		moveq	r1, #32768
 1189              	.L100:
 539:Drivers/STM32F1xx_HAL_Driver/Src/stm32f1xx_hal_dma.c ****     {
 1190              		.loc 1 539 7 discriminator 91 view .LVU389
 1191 00fe 0842     		tst	r0, r1
 1192 0100 40F08980 		bne	.L98
 558:Drivers/STM32F1xx_HAL_Driver/Src/stm32f1xx_hal_dma.c ****     {
 1193              		.loc 1 558 5 is_stmt 1 view .LVU390
 558:Drivers/STM32F1xx_HAL_Driver/Src/stm32f1xx_hal_dma.c ****     {
 1194              		.loc 1 558 7 is_stmt 0 view .LVU391
 1195 0104 601C     		adds	r0, r4, #1
 1196 0106 40F09980 		bne	.L102
 1197              	.L103:
 537:Drivers/STM32F1xx_HAL_Driver/Src/stm32f1xx_hal_dma.c ****   {
 1198              		.loc 1 537 9 discriminator 2 view .LVU392
 1199 010a 1168     		ldr	r1, [r2]
 537:Drivers/STM32F1xx_HAL_Driver/Src/stm32f1xx_hal_dma.c ****   {
 1200              		.loc 1 537 40 discriminator 2 view .LVU393
 1201 010c 3142     		tst	r1, r6
 1202 010e 40F0F380 		bne	.L221
 539:Drivers/STM32F1xx_HAL_Driver/Src/stm32f1xx_hal_dma.c ****     {
 1203              		.loc 1 539 5 is_stmt 1 discriminator 2 view .LVU394
 539:Drivers/STM32F1xx_HAL_Driver/Src/stm32f1xx_hal_dma.c ****     {
 1204              		.loc 1 539 9 is_stmt 0 discriminator 2 view .LVU395
 1205 0112 6345     		cmp	r3, ip
 1206 0114 1068     		ldr	r0, [r2]
 1207 0116 D0D1     		bne	.L222
 1208              	.L161:
 539:Drivers/STM32F1xx_HAL_Driver/Src/stm32f1xx_hal_dma.c ****     {
 1209              		.loc 1 539 9 view .LVU396
 1210 0118 0821     		movs	r1, #8
 1211 011a F0E7     		b	.L100
 1212              	.LVL55:
 1213              	.L220:
ARM GAS  C:\Users\86184\AppData\Local\Temp\ccT1ePg0.s 			page 43


 518:Drivers/STM32F1xx_HAL_Driver/Src/stm32f1xx_hal_dma.c ****     return HAL_ERROR;
 1214              		.loc 1 518 5 is_stmt 1 view .LVU397
 518:Drivers/STM32F1xx_HAL_Driver/Src/stm32f1xx_hal_dma.c ****     return HAL_ERROR;
 1215              		.loc 1 518 21 is_stmt 0 view .LVU398
 1216 011c 4FF48073 		mov	r3, #256
 1217 0120 8363     		str	r3, [r0, #56]
 519:Drivers/STM32F1xx_HAL_Driver/Src/stm32f1xx_hal_dma.c ****   }
 1218              		.loc 1 519 5 is_stmt 1 view .LVU399
 519:Drivers/STM32F1xx_HAL_Driver/Src/stm32f1xx_hal_dma.c ****   }
 1219              		.loc 1 519 12 is_stmt 0 view .LVU400
 1220 0122 7AE7     		b	.L91
 1221              	.L94:
 531:Drivers/STM32F1xx_HAL_Driver/Src/stm32f1xx_hal_dma.c ****   }
 1222              		.loc 1 531 5 is_stmt 1 view .LVU401
 531:Drivers/STM32F1xx_HAL_Driver/Src/stm32f1xx_hal_dma.c ****   }
 1223              		.loc 1 531 12 is_stmt 0 view .LVU402
 1224 0124 9342     		cmp	r3, r2
 1225 0126 00F02581 		beq	.L139
 531:Drivers/STM32F1xx_HAL_Driver/Src/stm32f1xx_hal_dma.c ****   }
 1226              		.loc 1 531 12 discriminator 1 view .LVU403
 1227 012a 1432     		adds	r2, r2, #20
 1228 012c 9342     		cmp	r3, r2
 1229 012e 00F08581 		beq	.L140
 531:Drivers/STM32F1xx_HAL_Driver/Src/stm32f1xx_hal_dma.c ****   }
 1230              		.loc 1 531 12 discriminator 3 view .LVU404
 1231 0132 1432     		adds	r2, r2, #20
 1232 0134 9342     		cmp	r3, r2
 1233 0136 00F08881 		beq	.L141
 531:Drivers/STM32F1xx_HAL_Driver/Src/stm32f1xx_hal_dma.c ****   }
 1234              		.loc 1 531 12 discriminator 5 view .LVU405
 1235 013a 1432     		adds	r2, r2, #20
 1236 013c 9342     		cmp	r3, r2
 1237 013e 00F07781 		beq	.L135
 531:Drivers/STM32F1xx_HAL_Driver/Src/stm32f1xx_hal_dma.c ****   }
 1238              		.loc 1 531 12 discriminator 7 view .LVU406
 1239 0142 1432     		adds	r2, r2, #20
 1240 0144 9342     		cmp	r3, r2
 1241 0146 00F08B81 		beq	.L136
 531:Drivers/STM32F1xx_HAL_Driver/Src/stm32f1xx_hal_dma.c ****   }
 1242              		.loc 1 531 12 discriminator 9 view .LVU407
 1243 014a 1432     		adds	r2, r2, #20
 1244 014c 9342     		cmp	r3, r2
 1245 014e 00F09881 		beq	.L137
 531:Drivers/STM32F1xx_HAL_Driver/Src/stm32f1xx_hal_dma.c ****   }
 1246              		.loc 1 531 12 discriminator 11 view .LVU408
 1247 0152 1432     		adds	r2, r2, #20
 1248 0154 9342     		cmp	r3, r2
 1249 0156 00F0A681 		beq	.L138
 531:Drivers/STM32F1xx_HAL_Driver/Src/stm32f1xx_hal_dma.c ****   }
 1250              		.loc 1 531 12 discriminator 13 view .LVU409
 1251 015a 02F56272 		add	r2, r2, #904
 1252 015e 9342     		cmp	r3, r2
 1253 0160 00F00881 		beq	.L139
 531:Drivers/STM32F1xx_HAL_Driver/Src/stm32f1xx_hal_dma.c ****   }
 1254              		.loc 1 531 12 discriminator 15 view .LVU410
 1255 0164 1432     		adds	r2, r2, #20
 1256 0166 9342     		cmp	r3, r2
ARM GAS  C:\Users\86184\AppData\Local\Temp\ccT1ePg0.s 			page 44


 1257 0168 00F06881 		beq	.L140
 531:Drivers/STM32F1xx_HAL_Driver/Src/stm32f1xx_hal_dma.c ****   }
 1258              		.loc 1 531 12 discriminator 17 view .LVU411
 1259 016c 1432     		adds	r2, r2, #20
 1260 016e 9342     		cmp	r3, r2
 1261 0170 00F06B81 		beq	.L141
 531:Drivers/STM32F1xx_HAL_Driver/Src/stm32f1xx_hal_dma.c ****   }
 1262              		.loc 1 531 12 discriminator 19 view .LVU412
 1263 0174 584E     		ldr	r6, .L227+4
 1264 0176 B342     		cmp	r3, r6
 1265 0178 14BF     		ite	ne
 1266 017a 4FF48026 		movne	r6, #262144
 1267 017e 4FF48046 		moveq	r6, #16384
 1268 0182 85E7     		b	.L95
 1269              	.LVL56:
 1270              	.L162:
 539:Drivers/STM32F1xx_HAL_Driver/Src/stm32f1xx_hal_dma.c ****     {
 1271              		.loc 1 539 9 view .LVU413
 1272 0184 8021     		movs	r1, #128
 1273 0186 BAE7     		b	.L100
 1274              	.L163:
 1275 0188 4FF40061 		mov	r1, #2048
 1276 018c B7E7     		b	.L100
 1277              	.L214:
 537:Drivers/STM32F1xx_HAL_Driver/Src/stm32f1xx_hal_dma.c ****   {
 1278              		.loc 1 537 9 view .LVU414
 1279 018e 594A     		ldr	r2, .L227+32
 539:Drivers/STM32F1xx_HAL_Driver/Src/stm32f1xx_hal_dma.c ****     {
 1280              		.loc 1 539 9 view .LVU415
 1281 0190 DFF840C1 		ldr	ip, .L227
 1282 0194 DFF848E1 		ldr	lr, .L227+12
 1283 0198 DFF84881 		ldr	r8, .L227+16
 1284 019c DFF84891 		ldr	r9, .L227+20
 1285 01a0 DFF848A1 		ldr	r10, .L227+24
 1286 01a4 DFF848B1 		ldr	fp, .L227+28
 1287 01a8 22E0     		b	.L104
 1288              	.L224:
 539:Drivers/STM32F1xx_HAL_Driver/Src/stm32f1xx_hal_dma.c ****     {
 1289              		.loc 1 539 9 discriminator 3 view .LVU416
 1290 01aa 7345     		cmp	r3, lr
 1291 01ac 28D0     		beq	.L151
 539:Drivers/STM32F1xx_HAL_Driver/Src/stm32f1xx_hal_dma.c ****     {
 1292              		.loc 1 539 9 discriminator 5 view .LVU417
 1293 01ae 4345     		cmp	r3, r8
 1294 01b0 28D0     		beq	.L152
 539:Drivers/STM32F1xx_HAL_Driver/Src/stm32f1xx_hal_dma.c ****     {
 1295              		.loc 1 539 9 discriminator 7 view .LVU418
 1296 01b2 4B45     		cmp	r3, r9
 1297 01b4 29D0     		beq	.L146
 539:Drivers/STM32F1xx_HAL_Driver/Src/stm32f1xx_hal_dma.c ****     {
 1298              		.loc 1 539 9 discriminator 9 view .LVU419
 1299 01b6 5345     		cmp	r3, r10
 1300 01b8 3DD0     		beq	.L147
 539:Drivers/STM32F1xx_HAL_Driver/Src/stm32f1xx_hal_dma.c ****     {
 1301              		.loc 1 539 9 discriminator 11 view .LVU420
 1302 01ba 5B45     		cmp	r3, fp
 1303 01bc 4ED0     		beq	.L148
ARM GAS  C:\Users\86184\AppData\Local\Temp\ccT1ePg0.s 			page 45


 539:Drivers/STM32F1xx_HAL_Driver/Src/stm32f1xx_hal_dma.c ****     {
 1304              		.loc 1 539 9 discriminator 13 view .LVU421
 1305 01be 4749     		ldr	r1, .L227+8
 1306 01c0 8B42     		cmp	r3, r1
 1307 01c2 00F0D480 		beq	.L149
 539:Drivers/STM32F1xx_HAL_Driver/Src/stm32f1xx_hal_dma.c ****     {
 1308              		.loc 1 539 9 discriminator 15 view .LVU422
 1309 01c6 01F56271 		add	r1, r1, #904
 1310 01ca 8B42     		cmp	r3, r1
 1311 01cc 16D0     		beq	.L150
 539:Drivers/STM32F1xx_HAL_Driver/Src/stm32f1xx_hal_dma.c ****     {
 1312              		.loc 1 539 9 discriminator 17 view .LVU423
 1313 01ce 1431     		adds	r1, r1, #20
 1314 01d0 8B42     		cmp	r3, r1
 1315 01d2 15D0     		beq	.L151
 539:Drivers/STM32F1xx_HAL_Driver/Src/stm32f1xx_hal_dma.c ****     {
 1316              		.loc 1 539 9 discriminator 19 view .LVU424
 1317 01d4 1431     		adds	r1, r1, #20
 1318 01d6 8B42     		cmp	r3, r1
 1319 01d8 14D0     		beq	.L152
 539:Drivers/STM32F1xx_HAL_Driver/Src/stm32f1xx_hal_dma.c ****     {
 1320              		.loc 1 539 9 discriminator 21 view .LVU425
 1321 01da 1431     		adds	r1, r1, #20
 1322 01dc 8B42     		cmp	r3, r1
 1323 01de 14BF     		ite	ne
 1324 01e0 4FF40021 		movne	r1, #524288
 1325 01e4 4FF40041 		moveq	r1, #32768
 1326              	.L97:
 539:Drivers/STM32F1xx_HAL_Driver/Src/stm32f1xx_hal_dma.c ****     {
 1327              		.loc 1 539 7 discriminator 46 view .LVU426
 1328 01e8 0842     		tst	r0, r1
 1329 01ea 14D1     		bne	.L98
 558:Drivers/STM32F1xx_HAL_Driver/Src/stm32f1xx_hal_dma.c ****     {
 1330              		.loc 1 558 5 is_stmt 1 view .LVU427
 558:Drivers/STM32F1xx_HAL_Driver/Src/stm32f1xx_hal_dma.c ****     {
 1331              		.loc 1 558 7 is_stmt 0 view .LVU428
 1332 01ec 611C     		adds	r1, r4, #1
 1333 01ee 25D1     		bne	.L102
 1334              	.L104:
 537:Drivers/STM32F1xx_HAL_Driver/Src/stm32f1xx_hal_dma.c ****   {
 1335              		.loc 1 537 9 discriminator 1 view .LVU429
 1336 01f0 1168     		ldr	r1, [r2]
 537:Drivers/STM32F1xx_HAL_Driver/Src/stm32f1xx_hal_dma.c ****   {
 1337              		.loc 1 537 40 discriminator 1 view .LVU430
 1338 01f2 3142     		tst	r1, r6
 1339 01f4 38D1     		bne	.L223
 539:Drivers/STM32F1xx_HAL_Driver/Src/stm32f1xx_hal_dma.c ****     {
 1340              		.loc 1 539 5 is_stmt 1 discriminator 1 view .LVU431
 539:Drivers/STM32F1xx_HAL_Driver/Src/stm32f1xx_hal_dma.c ****     {
 1341              		.loc 1 539 9 is_stmt 0 discriminator 1 view .LVU432
 1342 01f6 6345     		cmp	r3, ip
 1343 01f8 1068     		ldr	r0, [r2]
 1344 01fa D6D1     		bne	.L224
 1345              	.L150:
 539:Drivers/STM32F1xx_HAL_Driver/Src/stm32f1xx_hal_dma.c ****     {
 1346              		.loc 1 539 9 view .LVU433
 1347 01fc 0821     		movs	r1, #8
ARM GAS  C:\Users\86184\AppData\Local\Temp\ccT1ePg0.s 			page 46


 1348 01fe F3E7     		b	.L97
 1349              	.L151:
 1350 0200 8021     		movs	r1, #128
 1351 0202 F1E7     		b	.L97
 1352              	.L152:
 1353 0204 4FF40061 		mov	r1, #2048
 1354 0208 EEE7     		b	.L97
 1355              	.L146:
 1356 020a 4FF40041 		mov	r1, #32768
 1357 020e EBE7     		b	.L97
 1358              	.L157:
 539:Drivers/STM32F1xx_HAL_Driver/Src/stm32f1xx_hal_dma.c ****     {
 1359              		.loc 1 539 9 view .LVU434
 1360 0210 4FF40041 		mov	r1, #32768
 1361 0214 73E7     		b	.L100
 1362              	.L98:
 544:Drivers/STM32F1xx_HAL_Driver/Src/stm32f1xx_hal_dma.c **** 
 1363              		.loc 1 544 7 is_stmt 1 view .LVU435
 544:Drivers/STM32F1xx_HAL_Driver/Src/stm32f1xx_hal_dma.c **** 
 1364              		.loc 1 544 50 is_stmt 0 view .LVU436
 1365 0216 0123     		movs	r3, #1
 544:Drivers/STM32F1xx_HAL_Driver/Src/stm32f1xx_hal_dma.c **** 
 1366              		.loc 1 544 11 view .LVU437
 1367 0218 D5E90F10 		ldrd	r1, r0, [r5, #60]
 553:Drivers/STM32F1xx_HAL_Driver/Src/stm32f1xx_hal_dma.c **** 
 1368              		.loc 1 553 7 view .LVU438
 1369 021c 4FF48072 		mov	r2, #256
 544:Drivers/STM32F1xx_HAL_Driver/Src/stm32f1xx_hal_dma.c **** 
 1370              		.loc 1 544 50 view .LVU439
 1371 0220 8340     		lsls	r3, r3, r0
 544:Drivers/STM32F1xx_HAL_Driver/Src/stm32f1xx_hal_dma.c **** 
 1372              		.loc 1 544 34 view .LVU440
 1373 0222 4B60     		str	r3, [r1, #4]
 547:Drivers/STM32F1xx_HAL_Driver/Src/stm32f1xx_hal_dma.c **** 
 1374              		.loc 1 547 7 is_stmt 1 view .LVU441
 1375 0224 AB6B     		ldr	r3, [r5, #56]
 553:Drivers/STM32F1xx_HAL_Driver/Src/stm32f1xx_hal_dma.c **** 
 1376              		.loc 1 553 7 is_stmt 0 view .LVU442
 1377 0226 2A84     		strh	r2, [r5, #32]	@ movhi
 547:Drivers/STM32F1xx_HAL_Driver/Src/stm32f1xx_hal_dma.c **** 
 1378              		.loc 1 547 7 view .LVU443
 1379 0228 43F00103 		orr	r3, r3, #1
 1380 022c AB63     		str	r3, [r5, #56]
 550:Drivers/STM32F1xx_HAL_Driver/Src/stm32f1xx_hal_dma.c **** 
 1381              		.loc 1 550 7 is_stmt 1 view .LVU444
 553:Drivers/STM32F1xx_HAL_Driver/Src/stm32f1xx_hal_dma.c **** 
 1382              		.loc 1 553 7 view .LVU445
 553:Drivers/STM32F1xx_HAL_Driver/Src/stm32f1xx_hal_dma.c **** 
 1383              		.loc 1 553 7 view .LVU446
 553:Drivers/STM32F1xx_HAL_Driver/Src/stm32f1xx_hal_dma.c **** 
 1384              		.loc 1 553 7 view .LVU447
 555:Drivers/STM32F1xx_HAL_Driver/Src/stm32f1xx_hal_dma.c ****     }
 1385              		.loc 1 555 7 view .LVU448
 555:Drivers/STM32F1xx_HAL_Driver/Src/stm32f1xx_hal_dma.c ****     }
 1386              		.loc 1 555 14 is_stmt 0 view .LVU449
 1387 022e F4E6     		b	.L91
 1388              	.L158:
ARM GAS  C:\Users\86184\AppData\Local\Temp\ccT1ePg0.s 			page 47


 539:Drivers/STM32F1xx_HAL_Driver/Src/stm32f1xx_hal_dma.c ****     {
 1389              		.loc 1 539 9 view .LVU450
 1390 0230 4FF40021 		mov	r1, #524288
 1391 0234 63E7     		b	.L100
 1392              	.L147:
 539:Drivers/STM32F1xx_HAL_Driver/Src/stm32f1xx_hal_dma.c ****     {
 1393              		.loc 1 539 9 view .LVU451
 1394 0236 4FF40021 		mov	r1, #524288
 1395 023a D5E7     		b	.L97
 1396              	.L102:
 560:Drivers/STM32F1xx_HAL_Driver/Src/stm32f1xx_hal_dma.c ****       {
 1397              		.loc 1 560 7 is_stmt 1 view .LVU452
 560:Drivers/STM32F1xx_HAL_Driver/Src/stm32f1xx_hal_dma.c ****       {
 1398              		.loc 1 560 9 is_stmt 0 view .LVU453
 1399 023c 34B1     		cbz	r4, .L106
 560:Drivers/STM32F1xx_HAL_Driver/Src/stm32f1xx_hal_dma.c ****       {
 1400              		.loc 1 560 31 discriminator 1 view .LVU454
 1401 023e FFF7FEFF 		bl	HAL_GetTick
 1402              	.LVL57:
 560:Drivers/STM32F1xx_HAL_Driver/Src/stm32f1xx_hal_dma.c ****       {
 1403              		.loc 1 560 45 discriminator 1 view .LVU455
 1404 0242 019B     		ldr	r3, [sp, #4]
 1405 0244 C01A     		subs	r0, r0, r3
 560:Drivers/STM32F1xx_HAL_Driver/Src/stm32f1xx_hal_dma.c ****       {
 1406              		.loc 1 560 26 discriminator 1 view .LVU456
 1407 0246 A042     		cmp	r0, r4
 1408 0248 7FF625AF 		bls	.L96
 1409              	.L106:
 563:Drivers/STM32F1xx_HAL_Driver/Src/stm32f1xx_hal_dma.c **** 
 1410              		.loc 1 563 9 is_stmt 1 view .LVU457
 569:Drivers/STM32F1xx_HAL_Driver/Src/stm32f1xx_hal_dma.c **** 
 1411              		.loc 1 569 9 is_stmt 0 view .LVU458
 1412 024c 4FF48072 		mov	r2, #256
 563:Drivers/STM32F1xx_HAL_Driver/Src/stm32f1xx_hal_dma.c **** 
 1413              		.loc 1 563 9 view .LVU459
 1414 0250 AB6B     		ldr	r3, [r5, #56]
 569:Drivers/STM32F1xx_HAL_Driver/Src/stm32f1xx_hal_dma.c **** 
 1415              		.loc 1 569 9 view .LVU460
 1416 0252 2A84     		strh	r2, [r5, #32]	@ movhi
 563:Drivers/STM32F1xx_HAL_Driver/Src/stm32f1xx_hal_dma.c **** 
 1417              		.loc 1 563 9 view .LVU461
 1418 0254 43F02003 		orr	r3, r3, #32
 1419 0258 AB63     		str	r3, [r5, #56]
 566:Drivers/STM32F1xx_HAL_Driver/Src/stm32f1xx_hal_dma.c **** 
 1420              		.loc 1 566 9 is_stmt 1 view .LVU462
 569:Drivers/STM32F1xx_HAL_Driver/Src/stm32f1xx_hal_dma.c **** 
 1421              		.loc 1 569 9 view .LVU463
 569:Drivers/STM32F1xx_HAL_Driver/Src/stm32f1xx_hal_dma.c **** 
 1422              		.loc 1 569 9 view .LVU464
 569:Drivers/STM32F1xx_HAL_Driver/Src/stm32f1xx_hal_dma.c **** 
 1423              		.loc 1 569 9 view .LVU465
 571:Drivers/STM32F1xx_HAL_Driver/Src/stm32f1xx_hal_dma.c ****       }
 1424              		.loc 1 571 9 view .LVU466
 571:Drivers/STM32F1xx_HAL_Driver/Src/stm32f1xx_hal_dma.c ****       }
 1425              		.loc 1 571 16 is_stmt 0 view .LVU467
 1426 025a DEE6     		b	.L91
 1427              	.L148:
ARM GAS  C:\Users\86184\AppData\Local\Temp\ccT1ePg0.s 			page 48


 539:Drivers/STM32F1xx_HAL_Driver/Src/stm32f1xx_hal_dma.c ****     {
 1428              		.loc 1 539 9 view .LVU468
 1429 025c 4FF40001 		mov	r1, #8388608
 1430 0260 C2E7     		b	.L97
 1431              	.L159:
 539:Drivers/STM32F1xx_HAL_Driver/Src/stm32f1xx_hal_dma.c ****     {
 1432              		.loc 1 539 9 view .LVU469
 1433 0262 4FF40001 		mov	r1, #8388608
 1434 0266 4AE7     		b	.L100
 1435              	.L223:
 576:Drivers/STM32F1xx_HAL_Driver/Src/stm32f1xx_hal_dma.c ****   {
 1436              		.loc 1 576 3 is_stmt 1 view .LVU470
 576:Drivers/STM32F1xx_HAL_Driver/Src/stm32f1xx_hal_dma.c ****   {
 1437              		.loc 1 576 5 is_stmt 0 view .LVU471
 1438 0268 002F     		cmp	r7, #0
 1439 026a 40F0B880 		bne	.L225
 579:Drivers/STM32F1xx_HAL_Driver/Src/stm32f1xx_hal_dma.c **** 
 1440              		.loc 1 579 5 is_stmt 1 discriminator 1 view .LVU472
 1441 026e 194A     		ldr	r2, .L227
 1442 0270 9342     		cmp	r3, r2
 1443 0272 00F0F380 		beq	.L172
 579:Drivers/STM32F1xx_HAL_Driver/Src/stm32f1xx_hal_dma.c **** 
 1444              		.loc 1 579 5 is_stmt 0 discriminator 3 view .LVU473
 1445 0276 1432     		adds	r2, r2, #20
 1446 0278 9342     		cmp	r3, r2
 1447 027a 00F0FB80 		beq	.L173
 579:Drivers/STM32F1xx_HAL_Driver/Src/stm32f1xx_hal_dma.c **** 
 1448              		.loc 1 579 5 discriminator 5 view .LVU474
 1449 027e 1432     		adds	r2, r2, #20
 1450 0280 9342     		cmp	r3, r2
 1451 0282 00F00A81 		beq	.L174
 579:Drivers/STM32F1xx_HAL_Driver/Src/stm32f1xx_hal_dma.c **** 
 1452              		.loc 1 579 5 discriminator 7 view .LVU475
 1453 0286 1432     		adds	r2, r2, #20
 1454 0288 9342     		cmp	r3, r2
 1455 028a 00F00F81 		beq	.L168
 579:Drivers/STM32F1xx_HAL_Driver/Src/stm32f1xx_hal_dma.c **** 
 1456              		.loc 1 579 5 discriminator 9 view .LVU476
 1457 028e 1432     		adds	r2, r2, #20
 1458 0290 9342     		cmp	r3, r2
 1459 0292 00F01981 		beq	.L169
 579:Drivers/STM32F1xx_HAL_Driver/Src/stm32f1xx_hal_dma.c **** 
 1460              		.loc 1 579 5 discriminator 11 view .LVU477
 1461 0296 1432     		adds	r2, r2, #20
 1462 0298 9342     		cmp	r3, r2
 1463 029a 00F02781 		beq	.L170
 579:Drivers/STM32F1xx_HAL_Driver/Src/stm32f1xx_hal_dma.c **** 
 1464              		.loc 1 579 5 discriminator 13 view .LVU478
 1465 029e 1432     		adds	r2, r2, #20
 1466 02a0 9342     		cmp	r3, r2
 1467 02a2 00F02C81 		beq	.L171
 579:Drivers/STM32F1xx_HAL_Driver/Src/stm32f1xx_hal_dma.c **** 
 1468              		.loc 1 579 5 discriminator 15 view .LVU479
 1469 02a6 02F56272 		add	r2, r2, #904
 1470 02aa 9342     		cmp	r3, r2
 1471 02ac 00F0D680 		beq	.L172
 579:Drivers/STM32F1xx_HAL_Driver/Src/stm32f1xx_hal_dma.c **** 
ARM GAS  C:\Users\86184\AppData\Local\Temp\ccT1ePg0.s 			page 49


 1472              		.loc 1 579 5 discriminator 17 view .LVU480
 1473 02b0 1432     		adds	r2, r2, #20
 1474 02b2 9342     		cmp	r3, r2
 1475 02b4 00F0DE80 		beq	.L173
 579:Drivers/STM32F1xx_HAL_Driver/Src/stm32f1xx_hal_dma.c **** 
 1476              		.loc 1 579 5 discriminator 19 view .LVU481
 1477 02b8 1432     		adds	r2, r2, #20
 1478 02ba 9342     		cmp	r3, r2
 1479 02bc 00F0ED80 		beq	.L174
 579:Drivers/STM32F1xx_HAL_Driver/Src/stm32f1xx_hal_dma.c **** 
 1480              		.loc 1 579 5 discriminator 21 view .LVU482
 1481 02c0 1432     		adds	r2, r2, #20
 1482 02c2 9342     		cmp	r3, r2
 1483 02c4 14BF     		ite	ne
 1484 02c6 4FF40033 		movne	r3, #131072
 1485 02ca 4FF40053 		moveq	r3, #8192
 1486              	.L111:
 579:Drivers/STM32F1xx_HAL_Driver/Src/stm32f1xx_hal_dma.c **** 
 1487              		.loc 1 579 5 discriminator 46 view .LVU483
 1488 02ce 094A     		ldr	r2, .L227+32
 1489 02d0 5360     		str	r3, [r2, #4]
 1490 02d2 45E0     		b	.L112
 1491              	.L228:
 1492              		.align	2
 1493              	.L227:
 1494 02d4 08000240 		.word	1073872904
 1495 02d8 44040240 		.word	1073873988
 1496 02dc 80000240 		.word	1073873024
 1497 02e0 1C000240 		.word	1073872924
 1498 02e4 30000240 		.word	1073872944
 1499 02e8 44000240 		.word	1073872964
 1500 02ec 58000240 		.word	1073872984
 1501 02f0 6C000240 		.word	1073873004
 1502 02f4 00040240 		.word	1073873920
 1503              	.L221:
 576:Drivers/STM32F1xx_HAL_Driver/Src/stm32f1xx_hal_dma.c ****   {
 1504              		.loc 1 576 3 is_stmt 1 view .LVU484
 576:Drivers/STM32F1xx_HAL_Driver/Src/stm32f1xx_hal_dma.c ****   {
 1505              		.loc 1 576 5 is_stmt 0 view .LVU485
 1506 02f8 002F     		cmp	r7, #0
 1507 02fa 3DD1     		bne	.L226
 579:Drivers/STM32F1xx_HAL_Driver/Src/stm32f1xx_hal_dma.c **** 
 1508              		.loc 1 579 5 discriminator 2 view .LVU486
 1509 02fc 844A     		ldr	r2, .L229
 1510 02fe 9342     		cmp	r3, r2
 1511 0300 00F0A680 		beq	.L183
 579:Drivers/STM32F1xx_HAL_Driver/Src/stm32f1xx_hal_dma.c **** 
 1512              		.loc 1 579 5 discriminator 47 view .LVU487
 1513 0304 1432     		adds	r2, r2, #20
 1514 0306 9342     		cmp	r3, r2
 1515 0308 00F0B680 		beq	.L184
 579:Drivers/STM32F1xx_HAL_Driver/Src/stm32f1xx_hal_dma.c **** 
 1516              		.loc 1 579 5 discriminator 49 view .LVU488
 1517 030c 1432     		adds	r2, r2, #20
 1518 030e 9342     		cmp	r3, r2
 1519 0310 00F0C080 		beq	.L185
 579:Drivers/STM32F1xx_HAL_Driver/Src/stm32f1xx_hal_dma.c **** 
ARM GAS  C:\Users\86184\AppData\Local\Temp\ccT1ePg0.s 			page 50


 1520              		.loc 1 579 5 discriminator 51 view .LVU489
 1521 0314 1432     		adds	r2, r2, #20
 1522 0316 9342     		cmp	r3, r2
 1523 0318 00F0D080 		beq	.L179
 579:Drivers/STM32F1xx_HAL_Driver/Src/stm32f1xx_hal_dma.c **** 
 1524              		.loc 1 579 5 discriminator 53 view .LVU490
 1525 031c 1432     		adds	r2, r2, #20
 1526 031e 9342     		cmp	r3, r2
 1527 0320 00F0D880 		beq	.L180
 579:Drivers/STM32F1xx_HAL_Driver/Src/stm32f1xx_hal_dma.c **** 
 1528              		.loc 1 579 5 discriminator 55 view .LVU491
 1529 0324 1432     		adds	r2, r2, #20
 1530 0326 9342     		cmp	r3, r2
 1531 0328 00F0DA80 		beq	.L181
 579:Drivers/STM32F1xx_HAL_Driver/Src/stm32f1xx_hal_dma.c **** 
 1532              		.loc 1 579 5 discriminator 57 view .LVU492
 1533 032c 1432     		adds	r2, r2, #20
 1534 032e 9342     		cmp	r3, r2
 1535 0330 00F0EB80 		beq	.L182
 579:Drivers/STM32F1xx_HAL_Driver/Src/stm32f1xx_hal_dma.c **** 
 1536              		.loc 1 579 5 discriminator 59 view .LVU493
 1537 0334 02F56272 		add	r2, r2, #904
 1538 0338 9342     		cmp	r3, r2
 1539 033a 00F08980 		beq	.L183
 579:Drivers/STM32F1xx_HAL_Driver/Src/stm32f1xx_hal_dma.c **** 
 1540              		.loc 1 579 5 discriminator 61 view .LVU494
 1541 033e 1432     		adds	r2, r2, #20
 1542 0340 9342     		cmp	r3, r2
 1543 0342 00F09980 		beq	.L184
 579:Drivers/STM32F1xx_HAL_Driver/Src/stm32f1xx_hal_dma.c **** 
 1544              		.loc 1 579 5 discriminator 63 view .LVU495
 1545 0346 1432     		adds	r2, r2, #20
 1546 0348 9342     		cmp	r3, r2
 1547 034a 00F0A380 		beq	.L185
 579:Drivers/STM32F1xx_HAL_Driver/Src/stm32f1xx_hal_dma.c **** 
 1548              		.loc 1 579 5 discriminator 65 view .LVU496
 1549 034e 1432     		adds	r2, r2, #20
 1550 0350 9342     		cmp	r3, r2
 1551 0352 14BF     		ite	ne
 1552 0354 4FF40033 		movne	r3, #131072
 1553 0358 4FF40053 		moveq	r3, #8192
 1554              	.L113:
 579:Drivers/STM32F1xx_HAL_Driver/Src/stm32f1xx_hal_dma.c **** 
 1555              		.loc 1 579 5 discriminator 90 view .LVU497
 1556 035c 6D4A     		ldr	r2, .L229+4
 1557 035e 5360     		str	r3, [r2, #4]
 1558              	.L112:
 583:Drivers/STM32F1xx_HAL_Driver/Src/stm32f1xx_hal_dma.c ****   }
 1559              		.loc 1 583 5 is_stmt 1 view .LVU498
 583:Drivers/STM32F1xx_HAL_Driver/Src/stm32f1xx_hal_dma.c ****   }
 1560              		.loc 1 583 17 is_stmt 0 view .LVU499
 1561 0360 0123     		movs	r3, #1
 1562 0362 85F82130 		strb	r3, [r5, #33]
 1563 0366 33E0     		b	.L114
 1564              	.L160:
 539:Drivers/STM32F1xx_HAL_Driver/Src/stm32f1xx_hal_dma.c ****     {
 1565              		.loc 1 539 9 view .LVU500
ARM GAS  C:\Users\86184\AppData\Local\Temp\ccT1ePg0.s 			page 51


 1566 0368 4FF00061 		mov	r1, #134217728
 1567 036c C7E6     		b	.L100
 1568              	.L149:
 539:Drivers/STM32F1xx_HAL_Driver/Src/stm32f1xx_hal_dma.c ****     {
 1569              		.loc 1 539 9 view .LVU501
 1570 036e 4FF00061 		mov	r1, #134217728
 1571 0372 39E7     		b	.L97
 1572              	.LVL58:
 1573              	.L139:
 531:Drivers/STM32F1xx_HAL_Driver/Src/stm32f1xx_hal_dma.c ****   }
 1574              		.loc 1 531 12 view .LVU502
 1575 0374 0426     		movs	r6, #4
 1576 0376 8BE6     		b	.L95
 1577              	.LVL59:
 1578              	.L226:
 588:Drivers/STM32F1xx_HAL_Driver/Src/stm32f1xx_hal_dma.c ****   }
 1579              		.loc 1 588 5 is_stmt 1 discriminator 2 view .LVU503
 1580 0378 654A     		ldr	r2, .L229
 1581 037a 9342     		cmp	r3, r2
 1582 037c 6AD0     		beq	.L205
 588:Drivers/STM32F1xx_HAL_Driver/Src/stm32f1xx_hal_dma.c ****   }
 1583              		.loc 1 588 5 is_stmt 0 discriminator 47 view .LVU504
 1584 037e 1432     		adds	r2, r2, #20
 1585 0380 9342     		cmp	r3, r2
 1586 0382 73D0     		beq	.L206
 588:Drivers/STM32F1xx_HAL_Driver/Src/stm32f1xx_hal_dma.c ****   }
 1587              		.loc 1 588 5 discriminator 49 view .LVU505
 1588 0384 1432     		adds	r2, r2, #20
 1589 0386 9342     		cmp	r3, r2
 1590 0388 7ED0     		beq	.L207
 588:Drivers/STM32F1xx_HAL_Driver/Src/stm32f1xx_hal_dma.c ****   }
 1591              		.loc 1 588 5 discriminator 51 view .LVU506
 1592 038a 1432     		adds	r2, r2, #20
 1593 038c 9342     		cmp	r3, r2
 1594 038e 00F09880 		beq	.L201
 588:Drivers/STM32F1xx_HAL_Driver/Src/stm32f1xx_hal_dma.c ****   }
 1595              		.loc 1 588 5 discriminator 53 view .LVU507
 1596 0392 1432     		adds	r2, r2, #20
 1597 0394 9342     		cmp	r3, r2
 1598 0396 00F0A080 		beq	.L202
 588:Drivers/STM32F1xx_HAL_Driver/Src/stm32f1xx_hal_dma.c ****   }
 1599              		.loc 1 588 5 discriminator 55 view .LVU508
 1600 039a 1432     		adds	r2, r2, #20
 1601 039c 9342     		cmp	r3, r2
 1602 039e 00F0A280 		beq	.L203
 588:Drivers/STM32F1xx_HAL_Driver/Src/stm32f1xx_hal_dma.c ****   }
 1603              		.loc 1 588 5 discriminator 57 view .LVU509
 1604 03a2 1432     		adds	r2, r2, #20
 1605 03a4 9342     		cmp	r3, r2
 1606 03a6 00F0A780 		beq	.L204
 588:Drivers/STM32F1xx_HAL_Driver/Src/stm32f1xx_hal_dma.c ****   }
 1607              		.loc 1 588 5 discriminator 59 view .LVU510
 1608 03aa 02F56272 		add	r2, r2, #904
 1609 03ae 9342     		cmp	r3, r2
 1610 03b0 50D0     		beq	.L205
 588:Drivers/STM32F1xx_HAL_Driver/Src/stm32f1xx_hal_dma.c ****   }
 1611              		.loc 1 588 5 discriminator 61 view .LVU511
ARM GAS  C:\Users\86184\AppData\Local\Temp\ccT1ePg0.s 			page 52


 1612 03b2 1432     		adds	r2, r2, #20
 1613 03b4 9342     		cmp	r3, r2
 1614 03b6 59D0     		beq	.L206
 588:Drivers/STM32F1xx_HAL_Driver/Src/stm32f1xx_hal_dma.c ****   }
 1615              		.loc 1 588 5 discriminator 63 view .LVU512
 1616 03b8 1432     		adds	r2, r2, #20
 1617 03ba 9342     		cmp	r3, r2
 1618 03bc 64D0     		beq	.L207
 588:Drivers/STM32F1xx_HAL_Driver/Src/stm32f1xx_hal_dma.c ****   }
 1619              		.loc 1 588 5 discriminator 65 view .LVU513
 1620 03be 1432     		adds	r2, r2, #20
 1621 03c0 9342     		cmp	r3, r2
 1622 03c2 14BF     		ite	ne
 1623 03c4 4FF48023 		movne	r3, #262144
 1624 03c8 4FF48043 		moveq	r3, #16384
 1625              	.L116:
 588:Drivers/STM32F1xx_HAL_Driver/Src/stm32f1xx_hal_dma.c ****   }
 1626              		.loc 1 588 5 discriminator 90 view .LVU514
 1627 03cc 514A     		ldr	r2, .L229+4
 1628 03ce 5360     		str	r3, [r2, #4]
 1629              	.L114:
 592:Drivers/STM32F1xx_HAL_Driver/Src/stm32f1xx_hal_dma.c **** 
 1630              		.loc 1 592 3 is_stmt 1 view .LVU515
 592:Drivers/STM32F1xx_HAL_Driver/Src/stm32f1xx_hal_dma.c **** 
 1631              		.loc 1 592 3 view .LVU516
 1632 03d0 0023     		movs	r3, #0
 594:Drivers/STM32F1xx_HAL_Driver/Src/stm32f1xx_hal_dma.c **** }
 1633              		.loc 1 594 10 is_stmt 0 view .LVU517
 1634 03d2 1846     		mov	r0, r3
 592:Drivers/STM32F1xx_HAL_Driver/Src/stm32f1xx_hal_dma.c **** 
 1635              		.loc 1 592 3 view .LVU518
 1636 03d4 85F82030 		strb	r3, [r5, #32]
 592:Drivers/STM32F1xx_HAL_Driver/Src/stm32f1xx_hal_dma.c **** 
 1637              		.loc 1 592 3 is_stmt 1 view .LVU519
 594:Drivers/STM32F1xx_HAL_Driver/Src/stm32f1xx_hal_dma.c **** }
 1638              		.loc 1 594 3 view .LVU520
 595:Drivers/STM32F1xx_HAL_Driver/Src/stm32f1xx_hal_dma.c **** 
 1639              		.loc 1 595 1 is_stmt 0 view .LVU521
 1640 03d8 03B0     		add	sp, sp, #12
 1641              	.LCFI20:
 1642              		.cfi_remember_state
 1643              		.cfi_def_cfa_offset 36
 1644              		@ sp needed
 1645 03da BDE8F08F 		pop	{r4, r5, r6, r7, r8, r9, r10, fp, pc}
 1646              	.LVL60:
 1647              	.L225:
 1648              	.LCFI21:
 1649              		.cfi_restore_state
 588:Drivers/STM32F1xx_HAL_Driver/Src/stm32f1xx_hal_dma.c ****   }
 1650              		.loc 1 588 5 discriminator 1 view .LVU522
 1651 03de 4C4A     		ldr	r2, .L229
 1652 03e0 9342     		cmp	r3, r2
 1653 03e2 39D0     		beq	.L194
 588:Drivers/STM32F1xx_HAL_Driver/Src/stm32f1xx_hal_dma.c ****   }
 1654              		.loc 1 588 5 discriminator 3 view .LVU523
 1655 03e4 1432     		adds	r2, r2, #20
 1656 03e6 9342     		cmp	r3, r2
ARM GAS  C:\Users\86184\AppData\Local\Temp\ccT1ePg0.s 			page 53


 1657 03e8 42D0     		beq	.L195
 588:Drivers/STM32F1xx_HAL_Driver/Src/stm32f1xx_hal_dma.c ****   }
 1658              		.loc 1 588 5 discriminator 5 view .LVU524
 1659 03ea 1432     		adds	r2, r2, #20
 1660 03ec 9342     		cmp	r3, r2
 1661 03ee 4ED0     		beq	.L196
 588:Drivers/STM32F1xx_HAL_Driver/Src/stm32f1xx_hal_dma.c ****   }
 1662              		.loc 1 588 5 discriminator 7 view .LVU525
 1663 03f0 1432     		adds	r2, r2, #20
 1664 03f2 9342     		cmp	r3, r2
 1665 03f4 5FD0     		beq	.L190
 588:Drivers/STM32F1xx_HAL_Driver/Src/stm32f1xx_hal_dma.c ****   }
 1666              		.loc 1 588 5 discriminator 9 view .LVU526
 1667 03f6 1432     		adds	r2, r2, #20
 1668 03f8 9342     		cmp	r3, r2
 1669 03fa 68D0     		beq	.L191
 588:Drivers/STM32F1xx_HAL_Driver/Src/stm32f1xx_hal_dma.c ****   }
 1670              		.loc 1 588 5 discriminator 11 view .LVU527
 1671 03fc 1432     		adds	r2, r2, #20
 1672 03fe 9342     		cmp	r3, r2
 1673 0400 77D0     		beq	.L192
 588:Drivers/STM32F1xx_HAL_Driver/Src/stm32f1xx_hal_dma.c ****   }
 1674              		.loc 1 588 5 discriminator 13 view .LVU528
 1675 0402 1432     		adds	r2, r2, #20
 1676 0404 9342     		cmp	r3, r2
 1677 0406 7DD0     		beq	.L193
 588:Drivers/STM32F1xx_HAL_Driver/Src/stm32f1xx_hal_dma.c ****   }
 1678              		.loc 1 588 5 discriminator 15 view .LVU529
 1679 0408 02F56272 		add	r2, r2, #904
 1680 040c 9342     		cmp	r3, r2
 1681 040e 23D0     		beq	.L194
 588:Drivers/STM32F1xx_HAL_Driver/Src/stm32f1xx_hal_dma.c ****   }
 1682              		.loc 1 588 5 discriminator 17 view .LVU530
 1683 0410 1432     		adds	r2, r2, #20
 1684 0412 9342     		cmp	r3, r2
 1685 0414 2CD0     		beq	.L195
 588:Drivers/STM32F1xx_HAL_Driver/Src/stm32f1xx_hal_dma.c ****   }
 1686              		.loc 1 588 5 discriminator 19 view .LVU531
 1687 0416 1432     		adds	r2, r2, #20
 1688 0418 9342     		cmp	r3, r2
 1689 041a 38D0     		beq	.L196
 588:Drivers/STM32F1xx_HAL_Driver/Src/stm32f1xx_hal_dma.c ****   }
 1690              		.loc 1 588 5 discriminator 21 view .LVU532
 1691 041c 1432     		adds	r2, r2, #20
 1692 041e 9342     		cmp	r3, r2
 1693 0420 14BF     		ite	ne
 1694 0422 4FF48023 		movne	r3, #262144
 1695 0426 4FF48043 		moveq	r3, #16384
 1696              	.L115:
 588:Drivers/STM32F1xx_HAL_Driver/Src/stm32f1xx_hal_dma.c ****   }
 1697              		.loc 1 588 5 discriminator 46 view .LVU533
 1698 042a 3B4A     		ldr	r2, .L229+8
 1699 042c 5360     		str	r3, [r2, #4]
 1700 042e CFE7     		b	.L114
 1701              	.LVL61:
 1702              	.L135:
 531:Drivers/STM32F1xx_HAL_Driver/Src/stm32f1xx_hal_dma.c ****   }
ARM GAS  C:\Users\86184\AppData\Local\Temp\ccT1ePg0.s 			page 54


 1703              		.loc 1 531 12 view .LVU534
 1704 0430 4FF48046 		mov	r6, #16384
 1705 0434 2CE6     		b	.L95
 1706              	.L124:
 526:Drivers/STM32F1xx_HAL_Driver/Src/stm32f1xx_hal_dma.c ****   }
 1707              		.loc 1 526 12 view .LVU535
 1708 0436 4FF40056 		mov	r6, #8192
 1709 043a 29E6     		b	.L95
 1710              	.L140:
 531:Drivers/STM32F1xx_HAL_Driver/Src/stm32f1xx_hal_dma.c ****   }
 1711              		.loc 1 531 12 view .LVU536
 1712 043c 4026     		movs	r6, #64
 1713 043e 27E6     		b	.L95
 1714              	.L129:
 526:Drivers/STM32F1xx_HAL_Driver/Src/stm32f1xx_hal_dma.c ****   }
 1715              		.loc 1 526 12 view .LVU537
 1716 0440 2026     		movs	r6, #32
 1717 0442 25E6     		b	.L95
 1718              	.L130:
 1719 0444 4FF40076 		mov	r6, #512
 1720 0448 22E6     		b	.L95
 1721              	.L141:
 531:Drivers/STM32F1xx_HAL_Driver/Src/stm32f1xx_hal_dma.c ****   }
 1722              		.loc 1 531 12 view .LVU538
 1723 044a 4FF48066 		mov	r6, #1024
 1724 044e 1FE6     		b	.L95
 1725              	.LVL62:
 1726              	.L183:
 579:Drivers/STM32F1xx_HAL_Driver/Src/stm32f1xx_hal_dma.c **** 
 1727              		.loc 1 579 5 view .LVU539
 1728 0450 0223     		movs	r3, #2
 1729 0452 83E7     		b	.L113
 1730              	.L205:
 588:Drivers/STM32F1xx_HAL_Driver/Src/stm32f1xx_hal_dma.c ****   }
 1731              		.loc 1 588 5 view .LVU540
 1732 0454 0423     		movs	r3, #4
 1733 0456 B9E7     		b	.L116
 1734              	.L194:
 588:Drivers/STM32F1xx_HAL_Driver/Src/stm32f1xx_hal_dma.c ****   }
 1735              		.loc 1 588 5 view .LVU541
 1736 0458 0423     		movs	r3, #4
 1737 045a E6E7     		b	.L115
 1738              	.L172:
 579:Drivers/STM32F1xx_HAL_Driver/Src/stm32f1xx_hal_dma.c **** 
 1739              		.loc 1 579 5 view .LVU542
 1740 045c 0223     		movs	r3, #2
 1741 045e 36E7     		b	.L111
 1742              	.LVL63:
 1743              	.L136:
 531:Drivers/STM32F1xx_HAL_Driver/Src/stm32f1xx_hal_dma.c ****   }
 1744              		.loc 1 531 12 view .LVU543
 1745 0460 4FF48026 		mov	r6, #262144
 1746 0464 14E6     		b	.L95
 1747              	.L125:
 526:Drivers/STM32F1xx_HAL_Driver/Src/stm32f1xx_hal_dma.c ****   }
 1748              		.loc 1 526 12 view .LVU544
 1749 0466 4FF40036 		mov	r6, #131072
ARM GAS  C:\Users\86184\AppData\Local\Temp\ccT1ePg0.s 			page 55


 1750 046a 11E6     		b	.L95
 1751              	.LVL64:
 1752              	.L206:
 588:Drivers/STM32F1xx_HAL_Driver/Src/stm32f1xx_hal_dma.c ****   }
 1753              		.loc 1 588 5 view .LVU545
 1754 046c 4023     		movs	r3, #64
 1755 046e ADE7     		b	.L116
 1756              	.L195:
 588:Drivers/STM32F1xx_HAL_Driver/Src/stm32f1xx_hal_dma.c ****   }
 1757              		.loc 1 588 5 view .LVU546
 1758 0470 4023     		movs	r3, #64
 1759 0472 DAE7     		b	.L115
 1760              	.L173:
 579:Drivers/STM32F1xx_HAL_Driver/Src/stm32f1xx_hal_dma.c **** 
 1761              		.loc 1 579 5 view .LVU547
 1762 0474 2023     		movs	r3, #32
 1763 0476 2AE7     		b	.L111
 1764              	.L184:
 579:Drivers/STM32F1xx_HAL_Driver/Src/stm32f1xx_hal_dma.c **** 
 1765              		.loc 1 579 5 view .LVU548
 1766 0478 2023     		movs	r3, #32
 1767 047a 6FE7     		b	.L113
 1768              	.LVL65:
 1769              	.L126:
 526:Drivers/STM32F1xx_HAL_Driver/Src/stm32f1xx_hal_dma.c ****   }
 1770              		.loc 1 526 12 view .LVU549
 1771 047c 4FF40016 		mov	r6, #2097152
 1772 0480 06E6     		b	.L95
 1773              	.L137:
 531:Drivers/STM32F1xx_HAL_Driver/Src/stm32f1xx_hal_dma.c ****   }
 1774              		.loc 1 531 12 view .LVU550
 1775 0482 4FF48006 		mov	r6, #4194304
 1776 0486 03E6     		b	.L95
 1777              	.LVL66:
 1778              	.L207:
 588:Drivers/STM32F1xx_HAL_Driver/Src/stm32f1xx_hal_dma.c ****   }
 1779              		.loc 1 588 5 view .LVU551
 1780 0488 4FF48063 		mov	r3, #1024
 1781 048c 9EE7     		b	.L116
 1782              	.L196:
 588:Drivers/STM32F1xx_HAL_Driver/Src/stm32f1xx_hal_dma.c ****   }
 1783              		.loc 1 588 5 view .LVU552
 1784 048e 4FF48063 		mov	r3, #1024
 1785 0492 CAE7     		b	.L115
 1786              	.L185:
 579:Drivers/STM32F1xx_HAL_Driver/Src/stm32f1xx_hal_dma.c **** 
 1787              		.loc 1 579 5 view .LVU553
 1788 0494 4FF40073 		mov	r3, #512
 1789 0498 60E7     		b	.L113
 1790              	.L174:
 579:Drivers/STM32F1xx_HAL_Driver/Src/stm32f1xx_hal_dma.c **** 
 1791              		.loc 1 579 5 view .LVU554
 1792 049a 4FF40073 		mov	r3, #512
 1793 049e 16E7     		b	.L111
 1794              	.LVL67:
 1795              	.L127:
 526:Drivers/STM32F1xx_HAL_Driver/Src/stm32f1xx_hal_dma.c ****   }
ARM GAS  C:\Users\86184\AppData\Local\Temp\ccT1ePg0.s 			page 56


 1796              		.loc 1 526 12 view .LVU555
 1797 04a0 4FF00076 		mov	r6, #33554432
 1798 04a4 F4E5     		b	.L95
 1799              	.L138:
 531:Drivers/STM32F1xx_HAL_Driver/Src/stm32f1xx_hal_dma.c ****   }
 1800              		.loc 1 531 12 view .LVU556
 1801 04a6 4FF08066 		mov	r6, #67108864
 1802 04aa F1E5     		b	.L95
 1803              	.LVL68:
 1804              	.L168:
 579:Drivers/STM32F1xx_HAL_Driver/Src/stm32f1xx_hal_dma.c **** 
 1805              		.loc 1 579 5 view .LVU557
 1806 04ac 4FF40053 		mov	r3, #8192
 1807 04b0 0DE7     		b	.L111
 1808              	.LVL69:
 1809              	.L128:
 526:Drivers/STM32F1xx_HAL_Driver/Src/stm32f1xx_hal_dma.c ****   }
 1810              		.loc 1 526 12 view .LVU558
 1811 04b2 0226     		movs	r6, #2
 1812 04b4 ECE5     		b	.L95
 1813              	.LVL70:
 1814              	.L190:
 588:Drivers/STM32F1xx_HAL_Driver/Src/stm32f1xx_hal_dma.c ****   }
 1815              		.loc 1 588 5 view .LVU559
 1816 04b6 4FF48043 		mov	r3, #16384
 1817 04ba B6E7     		b	.L115
 1818              	.L179:
 579:Drivers/STM32F1xx_HAL_Driver/Src/stm32f1xx_hal_dma.c **** 
 1819              		.loc 1 579 5 view .LVU560
 1820 04bc 4FF40053 		mov	r3, #8192
 1821 04c0 4CE7     		b	.L113
 1822              	.L201:
 588:Drivers/STM32F1xx_HAL_Driver/Src/stm32f1xx_hal_dma.c ****   }
 1823              		.loc 1 588 5 view .LVU561
 1824 04c2 4FF48043 		mov	r3, #16384
 1825 04c6 81E7     		b	.L116
 1826              	.L169:
 579:Drivers/STM32F1xx_HAL_Driver/Src/stm32f1xx_hal_dma.c **** 
 1827              		.loc 1 579 5 view .LVU562
 1828 04c8 4FF40033 		mov	r3, #131072
 1829 04cc FFE6     		b	.L111
 1830              	.L191:
 588:Drivers/STM32F1xx_HAL_Driver/Src/stm32f1xx_hal_dma.c ****   }
 1831              		.loc 1 588 5 view .LVU563
 1832 04ce 4FF48023 		mov	r3, #262144
 1833 04d2 AAE7     		b	.L115
 1834              	.L180:
 579:Drivers/STM32F1xx_HAL_Driver/Src/stm32f1xx_hal_dma.c **** 
 1835              		.loc 1 579 5 view .LVU564
 1836 04d4 4FF40033 		mov	r3, #131072
 1837 04d8 40E7     		b	.L113
 1838              	.L202:
 588:Drivers/STM32F1xx_HAL_Driver/Src/stm32f1xx_hal_dma.c ****   }
 1839              		.loc 1 588 5 view .LVU565
 1840 04da 4FF48023 		mov	r3, #262144
 1841 04de 75E7     		b	.L116
 1842              	.L181:
ARM GAS  C:\Users\86184\AppData\Local\Temp\ccT1ePg0.s 			page 57


 579:Drivers/STM32F1xx_HAL_Driver/Src/stm32f1xx_hal_dma.c **** 
 1843              		.loc 1 579 5 view .LVU566
 1844 04e0 4FF40013 		mov	r3, #2097152
 1845 04e4 3AE7     		b	.L113
 1846              	.L203:
 588:Drivers/STM32F1xx_HAL_Driver/Src/stm32f1xx_hal_dma.c ****   }
 1847              		.loc 1 588 5 view .LVU567
 1848 04e6 4FF48003 		mov	r3, #4194304
 1849 04ea 6FE7     		b	.L116
 1850              	.L170:
 579:Drivers/STM32F1xx_HAL_Driver/Src/stm32f1xx_hal_dma.c **** 
 1851              		.loc 1 579 5 view .LVU568
 1852 04ec 4FF40013 		mov	r3, #2097152
 1853 04f0 EDE6     		b	.L111
 1854              	.L192:
 588:Drivers/STM32F1xx_HAL_Driver/Src/stm32f1xx_hal_dma.c ****   }
 1855              		.loc 1 588 5 view .LVU569
 1856 04f2 4FF48003 		mov	r3, #4194304
 1857 04f6 98E7     		b	.L115
 1858              	.L204:
 588:Drivers/STM32F1xx_HAL_Driver/Src/stm32f1xx_hal_dma.c ****   }
 1859              		.loc 1 588 5 view .LVU570
 1860 04f8 4FF08063 		mov	r3, #67108864
 1861 04fc 66E7     		b	.L116
 1862              	.L171:
 579:Drivers/STM32F1xx_HAL_Driver/Src/stm32f1xx_hal_dma.c **** 
 1863              		.loc 1 579 5 view .LVU571
 1864 04fe 4FF00073 		mov	r3, #33554432
 1865 0502 E4E6     		b	.L111
 1866              	.L193:
 588:Drivers/STM32F1xx_HAL_Driver/Src/stm32f1xx_hal_dma.c ****   }
 1867              		.loc 1 588 5 view .LVU572
 1868 0504 4FF08063 		mov	r3, #67108864
 1869 0508 8FE7     		b	.L115
 1870              	.L182:
 579:Drivers/STM32F1xx_HAL_Driver/Src/stm32f1xx_hal_dma.c **** 
 1871              		.loc 1 579 5 view .LVU573
 1872 050a 4FF00073 		mov	r3, #33554432
 1873 050e 25E7     		b	.L113
 1874              	.L230:
 1875              		.align	2
 1876              	.L229:
 1877 0510 08000240 		.word	1073872904
 1878 0514 00000240 		.word	1073872896
 1879 0518 00040240 		.word	1073873920
 1880              		.cfi_endproc
 1881              	.LFE71:
 1883              		.section	.text.HAL_DMA_IRQHandler,"ax",%progbits
 1884              		.align	1
 1885              		.p2align 2,,3
 1886              		.global	HAL_DMA_IRQHandler
 1887              		.syntax unified
 1888              		.thumb
 1889              		.thumb_func
 1891              	HAL_DMA_IRQHandler:
 1892              	.LVL71:
 1893              	.LFB72:
ARM GAS  C:\Users\86184\AppData\Local\Temp\ccT1ePg0.s 			page 58


 604:Drivers/STM32F1xx_HAL_Driver/Src/stm32f1xx_hal_dma.c ****   uint32_t flag_it = hdma->DmaBaseAddress->ISR;
 1894              		.loc 1 604 1 is_stmt 1 view -0
 1895              		.cfi_startproc
 1896              		@ args = 0, pretend = 0, frame = 0
 1897              		@ frame_needed = 0, uses_anonymous_args = 0
 1898              		@ link register save eliminated.
 605:Drivers/STM32F1xx_HAL_Driver/Src/stm32f1xx_hal_dma.c ****   uint32_t source_it = hdma->Instance->CCR;
 1899              		.loc 1 605 3 view .LVU575
 609:Drivers/STM32F1xx_HAL_Driver/Src/stm32f1xx_hal_dma.c ****   {
 1900              		.loc 1 609 33 is_stmt 0 view .LVU576
 1901 0000 0422     		movs	r2, #4
 604:Drivers/STM32F1xx_HAL_Driver/Src/stm32f1xx_hal_dma.c ****   uint32_t flag_it = hdma->DmaBaseAddress->ISR;
 1902              		.loc 1 604 1 view .LVU577
 1903 0002 70B4     		push	{r4, r5, r6}
 1904              	.LCFI22:
 1905              		.cfi_def_cfa_offset 12
 1906              		.cfi_offset 4, -12
 1907              		.cfi_offset 5, -8
 1908              		.cfi_offset 6, -4
 605:Drivers/STM32F1xx_HAL_Driver/Src/stm32f1xx_hal_dma.c ****   uint32_t source_it = hdma->Instance->CCR;
 1909              		.loc 1 605 26 view .LVU578
 1910 0004 C66B     		ldr	r6, [r0, #60]
 609:Drivers/STM32F1xx_HAL_Driver/Src/stm32f1xx_hal_dma.c ****   {
 1911              		.loc 1 609 40 view .LVU579
 1912 0006 016C     		ldr	r1, [r0, #64]
 605:Drivers/STM32F1xx_HAL_Driver/Src/stm32f1xx_hal_dma.c ****   uint32_t source_it = hdma->Instance->CCR;
 1913              		.loc 1 605 12 view .LVU580
 1914 0008 3468     		ldr	r4, [r6]
 1915              	.LVL72:
 606:Drivers/STM32F1xx_HAL_Driver/Src/stm32f1xx_hal_dma.c ****   
 1916              		.loc 1 606 3 is_stmt 1 view .LVU581
 606:Drivers/STM32F1xx_HAL_Driver/Src/stm32f1xx_hal_dma.c ****   
 1917              		.loc 1 606 28 is_stmt 0 view .LVU582
 1918 000a 0368     		ldr	r3, [r0]
 609:Drivers/STM32F1xx_HAL_Driver/Src/stm32f1xx_hal_dma.c ****   {
 1919              		.loc 1 609 33 view .LVU583
 1920 000c 8A40     		lsls	r2, r2, r1
 609:Drivers/STM32F1xx_HAL_Driver/Src/stm32f1xx_hal_dma.c ****   {
 1921              		.loc 1 609 6 view .LVU584
 1922 000e 2242     		tst	r2, r4
 606:Drivers/STM32F1xx_HAL_Driver/Src/stm32f1xx_hal_dma.c ****   
 1923              		.loc 1 606 12 view .LVU585
 1924 0010 1D68     		ldr	r5, [r3]
 1925              	.LVL73:
 609:Drivers/STM32F1xx_HAL_Driver/Src/stm32f1xx_hal_dma.c ****   {
 1926              		.loc 1 609 3 is_stmt 1 view .LVU586
 609:Drivers/STM32F1xx_HAL_Driver/Src/stm32f1xx_hal_dma.c ****   {
 1927              		.loc 1 609 6 is_stmt 0 view .LVU587
 1928 0012 43D0     		beq	.L232
 609:Drivers/STM32F1xx_HAL_Driver/Src/stm32f1xx_hal_dma.c ****   {
 1929              		.loc 1 609 67 discriminator 1 view .LVU588
 1930 0014 6A07     		lsls	r2, r5, #29
 1931 0016 41D5     		bpl	.L232
 612:Drivers/STM32F1xx_HAL_Driver/Src/stm32f1xx_hal_dma.c ****     {
 1932              		.loc 1 612 5 is_stmt 1 view .LVU589
 612:Drivers/STM32F1xx_HAL_Driver/Src/stm32f1xx_hal_dma.c ****     {
 1933              		.loc 1 612 23 is_stmt 0 view .LVU590
ARM GAS  C:\Users\86184\AppData\Local\Temp\ccT1ePg0.s 			page 59


 1934 0018 1A68     		ldr	r2, [r3]
 612:Drivers/STM32F1xx_HAL_Driver/Src/stm32f1xx_hal_dma.c ****     {
 1935              		.loc 1 612 7 view .LVU591
 1936 001a 9106     		lsls	r1, r2, #26
 1937 001c 03D4     		bmi	.L233
 615:Drivers/STM32F1xx_HAL_Driver/Src/stm32f1xx_hal_dma.c ****     }
 1938              		.loc 1 615 7 is_stmt 1 view .LVU592
 1939 001e 1A68     		ldr	r2, [r3]
 1940 0020 22F00402 		bic	r2, r2, #4
 1941 0024 1A60     		str	r2, [r3]
 1942              	.L233:
 618:Drivers/STM32F1xx_HAL_Driver/Src/stm32f1xx_hal_dma.c **** 
 1943              		.loc 1 618 5 view .LVU593
 1944 0026 9B4A     		ldr	r2, .L317
 1945 0028 9B49     		ldr	r1, .L317+4
 1946 002a 9342     		cmp	r3, r2
 1947 002c 40F29180 		bls	.L234
 618:Drivers/STM32F1xx_HAL_Driver/Src/stm32f1xx_hal_dma.c **** 
 1948              		.loc 1 618 5 is_stmt 0 discriminator 1 view .LVU594
 1949 0030 8B42     		cmp	r3, r1
 1950 0032 00F0EF80 		beq	.L254
 618:Drivers/STM32F1xx_HAL_Driver/Src/stm32f1xx_hal_dma.c **** 
 1951              		.loc 1 618 5 discriminator 3 view .LVU595
 1952 0036 1431     		adds	r1, r1, #20
 1953 0038 8B42     		cmp	r3, r1
 1954 003a 00F0F380 		beq	.L255
 618:Drivers/STM32F1xx_HAL_Driver/Src/stm32f1xx_hal_dma.c **** 
 1955              		.loc 1 618 5 discriminator 5 view .LVU596
 1956 003e 1431     		adds	r1, r1, #20
 1957 0040 8B42     		cmp	r3, r1
 1958 0042 00F0E280 		beq	.L256
 618:Drivers/STM32F1xx_HAL_Driver/Src/stm32f1xx_hal_dma.c **** 
 1959              		.loc 1 618 5 discriminator 7 view .LVU597
 1960 0046 1431     		adds	r1, r1, #20
 1961 0048 8B42     		cmp	r3, r1
 1962 004a 00F0F680 		beq	.L250
 618:Drivers/STM32F1xx_HAL_Driver/Src/stm32f1xx_hal_dma.c **** 
 1963              		.loc 1 618 5 discriminator 9 view .LVU598
 1964 004e 1431     		adds	r1, r1, #20
 1965 0050 8B42     		cmp	r3, r1
 1966 0052 00F0FE80 		beq	.L251
 618:Drivers/STM32F1xx_HAL_Driver/Src/stm32f1xx_hal_dma.c **** 
 1967              		.loc 1 618 5 discriminator 11 view .LVU599
 1968 0056 1431     		adds	r1, r1, #20
 1969 0058 8B42     		cmp	r3, r1
 1970 005a 00F00381 		beq	.L252
 618:Drivers/STM32F1xx_HAL_Driver/Src/stm32f1xx_hal_dma.c **** 
 1971              		.loc 1 618 5 discriminator 13 view .LVU600
 1972 005e 9342     		cmp	r3, r2
 1973 0060 00F00C81 		beq	.L253
 618:Drivers/STM32F1xx_HAL_Driver/Src/stm32f1xx_hal_dma.c **** 
 1974              		.loc 1 618 5 discriminator 15 view .LVU601
 1975 0064 02F56272 		add	r2, r2, #904
 1976 0068 9342     		cmp	r3, r2
 1977 006a 00F0D380 		beq	.L254
 618:Drivers/STM32F1xx_HAL_Driver/Src/stm32f1xx_hal_dma.c **** 
 1978              		.loc 1 618 5 discriminator 17 view .LVU602
ARM GAS  C:\Users\86184\AppData\Local\Temp\ccT1ePg0.s 			page 60


 1979 006e 1432     		adds	r2, r2, #20
 1980 0070 9342     		cmp	r3, r2
 1981 0072 00F0D780 		beq	.L255
 618:Drivers/STM32F1xx_HAL_Driver/Src/stm32f1xx_hal_dma.c **** 
 1982              		.loc 1 618 5 discriminator 19 view .LVU603
 1983 0076 1432     		adds	r2, r2, #20
 1984 0078 9342     		cmp	r3, r2
 1985 007a 00F0C680 		beq	.L256
 618:Drivers/STM32F1xx_HAL_Driver/Src/stm32f1xx_hal_dma.c **** 
 1986              		.loc 1 618 5 discriminator 21 view .LVU604
 1987 007e 1432     		adds	r2, r2, #20
 1988 0080 9342     		cmp	r3, r2
 1989 0082 14BF     		ite	ne
 1990 0084 4FF48023 		movne	r3, #262144
 1991 0088 4FF48043 		moveq	r3, #16384
 1992              	.L235:
 618:Drivers/STM32F1xx_HAL_Driver/Src/stm32f1xx_hal_dma.c **** 
 1993              		.loc 1 618 5 discriminator 46 view .LVU605
 1994 008c 834A     		ldr	r2, .L317+8
 1995 008e 5360     		str	r3, [r2, #4]
 1996              	.L236:
 623:Drivers/STM32F1xx_HAL_Driver/Src/stm32f1xx_hal_dma.c ****     {
 1997              		.loc 1 623 5 is_stmt 1 view .LVU606
 623:Drivers/STM32F1xx_HAL_Driver/Src/stm32f1xx_hal_dma.c ****     {
 1998              		.loc 1 623 12 is_stmt 0 view .LVU607
 1999 0090 C36A     		ldr	r3, [r0, #44]
 623:Drivers/STM32F1xx_HAL_Driver/Src/stm32f1xx_hal_dma.c ****     {
 2000              		.loc 1 623 7 view .LVU608
 2001 0092 002B     		cmp	r3, #0
 2002 0094 40F0B080 		bne	.L316
 2003              	.LVL74:
 2004              	.L231:
 681:Drivers/STM32F1xx_HAL_Driver/Src/stm32f1xx_hal_dma.c **** 
 2005              		.loc 1 681 1 view .LVU609
 2006 0098 70BC     		pop	{r4, r5, r6}
 2007              	.LCFI23:
 2008              		.cfi_remember_state
 2009              		.cfi_restore 6
 2010              		.cfi_restore 5
 2011              		.cfi_restore 4
 2012              		.cfi_def_cfa_offset 0
 2013              	.LVL75:
 681:Drivers/STM32F1xx_HAL_Driver/Src/stm32f1xx_hal_dma.c **** 
 2014              		.loc 1 681 1 view .LVU610
 2015 009a 7047     		bx	lr
 2016              	.LVL76:
 2017              	.L232:
 2018              	.LCFI24:
 2019              		.cfi_restore_state
 631:Drivers/STM32F1xx_HAL_Driver/Src/stm32f1xx_hal_dma.c ****   {
 2020              		.loc 1 631 8 is_stmt 1 view .LVU611
 631:Drivers/STM32F1xx_HAL_Driver/Src/stm32f1xx_hal_dma.c ****   {
 2021              		.loc 1 631 38 is_stmt 0 view .LVU612
 2022 009c 0222     		movs	r2, #2
 2023 009e 8A40     		lsls	r2, r2, r1
 631:Drivers/STM32F1xx_HAL_Driver/Src/stm32f1xx_hal_dma.c ****   {
 2024              		.loc 1 631 11 view .LVU613
ARM GAS  C:\Users\86184\AppData\Local\Temp\ccT1ePg0.s 			page 61


 2025 00a0 2242     		tst	r2, r4
 2026 00a2 3FD0     		beq	.L240
 631:Drivers/STM32F1xx_HAL_Driver/Src/stm32f1xx_hal_dma.c ****   {
 2027              		.loc 1 631 72 discriminator 1 view .LVU614
 2028 00a4 AA07     		lsls	r2, r5, #30
 2029 00a6 3DD5     		bpl	.L240
 633:Drivers/STM32F1xx_HAL_Driver/Src/stm32f1xx_hal_dma.c ****     {
 2030              		.loc 1 633 5 is_stmt 1 view .LVU615
 633:Drivers/STM32F1xx_HAL_Driver/Src/stm32f1xx_hal_dma.c ****     {
 2031              		.loc 1 633 23 is_stmt 0 view .LVU616
 2032 00a8 1A68     		ldr	r2, [r3]
 633:Drivers/STM32F1xx_HAL_Driver/Src/stm32f1xx_hal_dma.c ****     {
 2033              		.loc 1 633 7 view .LVU617
 2034 00aa 9106     		lsls	r1, r2, #26
 2035 00ac 06D4     		bmi	.L241
 636:Drivers/STM32F1xx_HAL_Driver/Src/stm32f1xx_hal_dma.c **** 
 2036              		.loc 1 636 7 is_stmt 1 view .LVU618
 639:Drivers/STM32F1xx_HAL_Driver/Src/stm32f1xx_hal_dma.c ****     }
 2037              		.loc 1 639 19 is_stmt 0 view .LVU619
 2038 00ae 0121     		movs	r1, #1
 636:Drivers/STM32F1xx_HAL_Driver/Src/stm32f1xx_hal_dma.c **** 
 2039              		.loc 1 636 7 view .LVU620
 2040 00b0 1A68     		ldr	r2, [r3]
 2041 00b2 22F00A02 		bic	r2, r2, #10
 2042 00b6 1A60     		str	r2, [r3]
 639:Drivers/STM32F1xx_HAL_Driver/Src/stm32f1xx_hal_dma.c ****     }
 2043              		.loc 1 639 7 is_stmt 1 view .LVU621
 639:Drivers/STM32F1xx_HAL_Driver/Src/stm32f1xx_hal_dma.c ****     }
 2044              		.loc 1 639 19 is_stmt 0 view .LVU622
 2045 00b8 80F82110 		strb	r1, [r0, #33]
 2046              	.L241:
 642:Drivers/STM32F1xx_HAL_Driver/Src/stm32f1xx_hal_dma.c **** 
 2047              		.loc 1 642 7 is_stmt 1 view .LVU623
 2048 00bc 754A     		ldr	r2, .L317
 2049 00be 7649     		ldr	r1, .L317+4
 2050 00c0 9342     		cmp	r3, r2
 2051 00c2 6DD9     		bls	.L242
 642:Drivers/STM32F1xx_HAL_Driver/Src/stm32f1xx_hal_dma.c **** 
 2052              		.loc 1 642 7 is_stmt 0 discriminator 1 view .LVU624
 2053 00c4 8B42     		cmp	r3, r1
 2054 00c6 00F0A780 		beq	.L276
 642:Drivers/STM32F1xx_HAL_Driver/Src/stm32f1xx_hal_dma.c **** 
 2055              		.loc 1 642 7 discriminator 3 view .LVU625
 2056 00ca 1431     		adds	r1, r1, #20
 2057 00cc 8B42     		cmp	r3, r1
 2058 00ce 00F09780 		beq	.L277
 642:Drivers/STM32F1xx_HAL_Driver/Src/stm32f1xx_hal_dma.c **** 
 2059              		.loc 1 642 7 discriminator 5 view .LVU626
 2060 00d2 1431     		adds	r1, r1, #20
 2061 00d4 8B42     		cmp	r3, r1
 2062 00d6 00F0A780 		beq	.L278
 642:Drivers/STM32F1xx_HAL_Driver/Src/stm32f1xx_hal_dma.c **** 
 2063              		.loc 1 642 7 discriminator 7 view .LVU627
 2064 00da 1431     		adds	r1, r1, #20
 2065 00dc 8B42     		cmp	r3, r1
 2066 00de 00F0AF80 		beq	.L272
 642:Drivers/STM32F1xx_HAL_Driver/Src/stm32f1xx_hal_dma.c **** 
ARM GAS  C:\Users\86184\AppData\Local\Temp\ccT1ePg0.s 			page 62


 2067              		.loc 1 642 7 discriminator 9 view .LVU628
 2068 00e2 1431     		adds	r1, r1, #20
 2069 00e4 8B42     		cmp	r3, r1
 2070 00e6 00F0BA80 		beq	.L273
 642:Drivers/STM32F1xx_HAL_Driver/Src/stm32f1xx_hal_dma.c **** 
 2071              		.loc 1 642 7 discriminator 11 view .LVU629
 2072 00ea 1431     		adds	r1, r1, #20
 2073 00ec 8B42     		cmp	r3, r1
 2074 00ee 00F0C280 		beq	.L274
 642:Drivers/STM32F1xx_HAL_Driver/Src/stm32f1xx_hal_dma.c **** 
 2075              		.loc 1 642 7 discriminator 13 view .LVU630
 2076 00f2 9342     		cmp	r3, r2
 2077 00f4 00F0CB80 		beq	.L275
 642:Drivers/STM32F1xx_HAL_Driver/Src/stm32f1xx_hal_dma.c **** 
 2078              		.loc 1 642 7 discriminator 15 view .LVU631
 2079 00f8 02F56272 		add	r2, r2, #904
 2080 00fc 9342     		cmp	r3, r2
 2081 00fe 00F08B80 		beq	.L276
 642:Drivers/STM32F1xx_HAL_Driver/Src/stm32f1xx_hal_dma.c **** 
 2082              		.loc 1 642 7 discriminator 17 view .LVU632
 2083 0102 1432     		adds	r2, r2, #20
 2084 0104 9342     		cmp	r3, r2
 2085 0106 7BD0     		beq	.L277
 642:Drivers/STM32F1xx_HAL_Driver/Src/stm32f1xx_hal_dma.c **** 
 2086              		.loc 1 642 7 discriminator 19 view .LVU633
 2087 0108 1432     		adds	r2, r2, #20
 2088 010a 9342     		cmp	r3, r2
 2089 010c 00F08C80 		beq	.L278
 642:Drivers/STM32F1xx_HAL_Driver/Src/stm32f1xx_hal_dma.c **** 
 2090              		.loc 1 642 7 discriminator 21 view .LVU634
 2091 0110 1432     		adds	r2, r2, #20
 2092 0112 9342     		cmp	r3, r2
 2093 0114 14BF     		ite	ne
 2094 0116 4FF40032 		movne	r2, #131072
 2095 011a 4FF40052 		moveq	r2, #8192
 2096              	.L243:
 642:Drivers/STM32F1xx_HAL_Driver/Src/stm32f1xx_hal_dma.c **** 
 2097              		.loc 1 642 7 discriminator 46 view .LVU635
 2098 011e 5F4B     		ldr	r3, .L317+8
 2099 0120 5A60     		str	r2, [r3, #4]
 2100 0122 62E0     		b	.L244
 2101              	.L240:
 655:Drivers/STM32F1xx_HAL_Driver/Src/stm32f1xx_hal_dma.c ****   {
 2102              		.loc 1 655 8 is_stmt 1 view .LVU636
 655:Drivers/STM32F1xx_HAL_Driver/Src/stm32f1xx_hal_dma.c ****   {
 2103              		.loc 1 655 48 is_stmt 0 view .LVU637
 2104 0124 0822     		movs	r2, #8
 2105 0126 8A40     		lsls	r2, r2, r1
 655:Drivers/STM32F1xx_HAL_Driver/Src/stm32f1xx_hal_dma.c ****   {
 2106              		.loc 1 655 11 view .LVU638
 2107 0128 2242     		tst	r2, r4
 2108 012a B5D0     		beq	.L231
 655:Drivers/STM32F1xx_HAL_Driver/Src/stm32f1xx_hal_dma.c ****   {
 2109              		.loc 1 655 73 discriminator 1 view .LVU639
 2110 012c 2A07     		lsls	r2, r5, #28
 2111 012e B3D5     		bpl	.L231
 660:Drivers/STM32F1xx_HAL_Driver/Src/stm32f1xx_hal_dma.c **** 
ARM GAS  C:\Users\86184\AppData\Local\Temp\ccT1ePg0.s 			page 63


 2112              		.loc 1 660 5 is_stmt 1 view .LVU640
 2113 0130 1A68     		ldr	r2, [r3]
 672:Drivers/STM32F1xx_HAL_Driver/Src/stm32f1xx_hal_dma.c **** 
 2114              		.loc 1 672 5 is_stmt 0 view .LVU641
 2115 0132 4FF48074 		mov	r4, #256
 2116              	.LVL77:
 660:Drivers/STM32F1xx_HAL_Driver/Src/stm32f1xx_hal_dma.c **** 
 2117              		.loc 1 660 5 view .LVU642
 2118 0136 22F00E02 		bic	r2, r2, #14
 2119 013a 1A60     		str	r2, [r3]
 663:Drivers/STM32F1xx_HAL_Driver/Src/stm32f1xx_hal_dma.c **** 
 2120              		.loc 1 663 5 is_stmt 1 view .LVU643
 663:Drivers/STM32F1xx_HAL_Driver/Src/stm32f1xx_hal_dma.c **** 
 2121              		.loc 1 663 48 is_stmt 0 view .LVU644
 2122 013c 0123     		movs	r3, #1
 674:Drivers/STM32F1xx_HAL_Driver/Src/stm32f1xx_hal_dma.c ****     {
 2123              		.loc 1 674 13 view .LVU645
 2124 013e 026B     		ldr	r2, [r0, #48]
 663:Drivers/STM32F1xx_HAL_Driver/Src/stm32f1xx_hal_dma.c **** 
 2125              		.loc 1 663 48 view .LVU646
 2126 0140 03FA01F1 		lsl	r1, r3, r1
 663:Drivers/STM32F1xx_HAL_Driver/Src/stm32f1xx_hal_dma.c **** 
 2127              		.loc 1 663 32 view .LVU647
 2128 0144 7160     		str	r1, [r6, #4]
 666:Drivers/STM32F1xx_HAL_Driver/Src/stm32f1xx_hal_dma.c **** 
 2129              		.loc 1 666 5 is_stmt 1 view .LVU648
 666:Drivers/STM32F1xx_HAL_Driver/Src/stm32f1xx_hal_dma.c **** 
 2130              		.loc 1 666 21 is_stmt 0 view .LVU649
 2131 0146 8363     		str	r3, [r0, #56]
 669:Drivers/STM32F1xx_HAL_Driver/Src/stm32f1xx_hal_dma.c **** 
 2132              		.loc 1 669 5 is_stmt 1 view .LVU650
 672:Drivers/STM32F1xx_HAL_Driver/Src/stm32f1xx_hal_dma.c **** 
 2133              		.loc 1 672 5 view .LVU651
 672:Drivers/STM32F1xx_HAL_Driver/Src/stm32f1xx_hal_dma.c **** 
 2134              		.loc 1 672 5 view .LVU652
 2135 0148 0484     		strh	r4, [r0, #32]	@ movhi
 672:Drivers/STM32F1xx_HAL_Driver/Src/stm32f1xx_hal_dma.c **** 
 2136              		.loc 1 672 5 view .LVU653
 674:Drivers/STM32F1xx_HAL_Driver/Src/stm32f1xx_hal_dma.c ****     {
 2137              		.loc 1 674 5 view .LVU654
 674:Drivers/STM32F1xx_HAL_Driver/Src/stm32f1xx_hal_dma.c ****     {
 2138              		.loc 1 674 8 is_stmt 0 view .LVU655
 2139 014a 002A     		cmp	r2, #0
 2140 014c A4D0     		beq	.L231
 677:Drivers/STM32F1xx_HAL_Driver/Src/stm32f1xx_hal_dma.c ****     }
 2141              		.loc 1 677 7 is_stmt 1 view .LVU656
 681:Drivers/STM32F1xx_HAL_Driver/Src/stm32f1xx_hal_dma.c **** 
 2142              		.loc 1 681 1 is_stmt 0 view .LVU657
 2143 014e 70BC     		pop	{r4, r5, r6}
 2144              	.LCFI25:
 2145              		.cfi_remember_state
 2146              		.cfi_restore 6
 2147              		.cfi_restore 5
 2148              		.cfi_restore 4
 2149              		.cfi_def_cfa_offset 0
 2150              	.LVL78:
 677:Drivers/STM32F1xx_HAL_Driver/Src/stm32f1xx_hal_dma.c ****     }
ARM GAS  C:\Users\86184\AppData\Local\Temp\ccT1ePg0.s 			page 64


 2151              		.loc 1 677 7 view .LVU658
 2152 0150 1047     		bx	r2	@ indirect register sibling call
 2153              	.LVL79:
 2154              	.L234:
 2155              	.LCFI26:
 2156              		.cfi_restore_state
 618:Drivers/STM32F1xx_HAL_Driver/Src/stm32f1xx_hal_dma.c **** 
 2157              		.loc 1 618 5 discriminator 2 view .LVU659
 2158 0152 8B42     		cmp	r3, r1
 2159 0154 5CD0     		beq	.L265
 618:Drivers/STM32F1xx_HAL_Driver/Src/stm32f1xx_hal_dma.c **** 
 2160              		.loc 1 618 5 discriminator 47 view .LVU660
 2161 0156 1431     		adds	r1, r1, #20
 2162 0158 8B42     		cmp	r3, r1
 2163 015a 61D0     		beq	.L266
 618:Drivers/STM32F1xx_HAL_Driver/Src/stm32f1xx_hal_dma.c **** 
 2164              		.loc 1 618 5 discriminator 49 view .LVU661
 2165 015c 1431     		adds	r1, r1, #20
 2166 015e 8B42     		cmp	r3, r1
 2167 0160 50D0     		beq	.L267
 618:Drivers/STM32F1xx_HAL_Driver/Src/stm32f1xx_hal_dma.c **** 
 2168              		.loc 1 618 5 discriminator 51 view .LVU662
 2169 0162 1431     		adds	r1, r1, #20
 2170 0164 8B42     		cmp	r3, r1
 2171 0166 65D0     		beq	.L261
 618:Drivers/STM32F1xx_HAL_Driver/Src/stm32f1xx_hal_dma.c **** 
 2172              		.loc 1 618 5 discriminator 53 view .LVU663
 2173 0168 1431     		adds	r1, r1, #20
 2174 016a 8B42     		cmp	r3, r1
 2175 016c 6ED0     		beq	.L262
 618:Drivers/STM32F1xx_HAL_Driver/Src/stm32f1xx_hal_dma.c **** 
 2176              		.loc 1 618 5 discriminator 55 view .LVU664
 2177 016e 1431     		adds	r1, r1, #20
 2178 0170 8B42     		cmp	r3, r1
 2179 0172 7AD0     		beq	.L263
 618:Drivers/STM32F1xx_HAL_Driver/Src/stm32f1xx_hal_dma.c **** 
 2180              		.loc 1 618 5 discriminator 57 view .LVU665
 2181 0174 9342     		cmp	r3, r2
 2182 0176 00F08480 		beq	.L264
 618:Drivers/STM32F1xx_HAL_Driver/Src/stm32f1xx_hal_dma.c **** 
 2183              		.loc 1 618 5 discriminator 59 view .LVU666
 2184 017a 494A     		ldr	r2, .L317+12
 2185 017c 9342     		cmp	r3, r2
 2186 017e 47D0     		beq	.L265
 618:Drivers/STM32F1xx_HAL_Driver/Src/stm32f1xx_hal_dma.c **** 
 2187              		.loc 1 618 5 discriminator 61 view .LVU667
 2188 0180 1432     		adds	r2, r2, #20
 2189 0182 9342     		cmp	r3, r2
 2190 0184 4CD0     		beq	.L266
 618:Drivers/STM32F1xx_HAL_Driver/Src/stm32f1xx_hal_dma.c **** 
 2191              		.loc 1 618 5 discriminator 63 view .LVU668
 2192 0186 1432     		adds	r2, r2, #20
 2193 0188 9342     		cmp	r3, r2
 2194 018a 3BD0     		beq	.L267
 618:Drivers/STM32F1xx_HAL_Driver/Src/stm32f1xx_hal_dma.c **** 
 2195              		.loc 1 618 5 discriminator 65 view .LVU669
 2196 018c 1432     		adds	r2, r2, #20
ARM GAS  C:\Users\86184\AppData\Local\Temp\ccT1ePg0.s 			page 65


 2197 018e 9342     		cmp	r3, r2
 2198 0190 14BF     		ite	ne
 2199 0192 4FF48023 		movne	r3, #262144
 2200 0196 4FF48043 		moveq	r3, #16384
 2201              	.L237:
 618:Drivers/STM32F1xx_HAL_Driver/Src/stm32f1xx_hal_dma.c **** 
 2202              		.loc 1 618 5 discriminator 90 view .LVU670
 2203 019a 424A     		ldr	r2, .L317+16
 2204 019c 5360     		str	r3, [r2, #4]
 2205 019e 77E7     		b	.L236
 2206              	.L242:
 642:Drivers/STM32F1xx_HAL_Driver/Src/stm32f1xx_hal_dma.c **** 
 2207              		.loc 1 642 7 discriminator 2 view .LVU671
 2208 01a0 8B42     		cmp	r3, r1
 2209 01a2 3BD0     		beq	.L287
 642:Drivers/STM32F1xx_HAL_Driver/Src/stm32f1xx_hal_dma.c **** 
 2210              		.loc 1 642 7 discriminator 47 view .LVU672
 2211 01a4 1431     		adds	r1, r1, #20
 2212 01a6 8B42     		cmp	r3, r1
 2213 01a8 28D0     		beq	.L288
 642:Drivers/STM32F1xx_HAL_Driver/Src/stm32f1xx_hal_dma.c **** 
 2214              		.loc 1 642 7 discriminator 49 view .LVU673
 2215 01aa 1431     		adds	r1, r1, #20
 2216 01ac 8B42     		cmp	r3, r1
 2217 01ae 3ED0     		beq	.L289
 642:Drivers/STM32F1xx_HAL_Driver/Src/stm32f1xx_hal_dma.c **** 
 2218              		.loc 1 642 7 discriminator 51 view .LVU674
 2219 01b0 1431     		adds	r1, r1, #20
 2220 01b2 8B42     		cmp	r3, r1
 2221 01b4 47D0     		beq	.L283
 642:Drivers/STM32F1xx_HAL_Driver/Src/stm32f1xx_hal_dma.c **** 
 2222              		.loc 1 642 7 discriminator 53 view .LVU675
 2223 01b6 1431     		adds	r1, r1, #20
 2224 01b8 8B42     		cmp	r3, r1
 2225 01ba 4DD0     		beq	.L284
 642:Drivers/STM32F1xx_HAL_Driver/Src/stm32f1xx_hal_dma.c **** 
 2226              		.loc 1 642 7 discriminator 55 view .LVU676
 2227 01bc 1431     		adds	r1, r1, #20
 2228 01be 8B42     		cmp	r3, r1
 2229 01c0 56D0     		beq	.L285
 642:Drivers/STM32F1xx_HAL_Driver/Src/stm32f1xx_hal_dma.c **** 
 2230              		.loc 1 642 7 discriminator 57 view .LVU677
 2231 01c2 9342     		cmp	r3, r2
 2232 01c4 60D0     		beq	.L286
 642:Drivers/STM32F1xx_HAL_Driver/Src/stm32f1xx_hal_dma.c **** 
 2233              		.loc 1 642 7 discriminator 59 view .LVU678
 2234 01c6 364A     		ldr	r2, .L317+12
 2235 01c8 9342     		cmp	r3, r2
 2236 01ca 27D0     		beq	.L287
 642:Drivers/STM32F1xx_HAL_Driver/Src/stm32f1xx_hal_dma.c **** 
 2237              		.loc 1 642 7 discriminator 61 view .LVU679
 2238 01cc 1432     		adds	r2, r2, #20
 2239 01ce 9342     		cmp	r3, r2
 2240 01d0 14D0     		beq	.L288
 642:Drivers/STM32F1xx_HAL_Driver/Src/stm32f1xx_hal_dma.c **** 
 2241              		.loc 1 642 7 discriminator 63 view .LVU680
 2242 01d2 1432     		adds	r2, r2, #20
ARM GAS  C:\Users\86184\AppData\Local\Temp\ccT1ePg0.s 			page 66


 2243 01d4 9342     		cmp	r3, r2
 2244 01d6 2AD0     		beq	.L289
 642:Drivers/STM32F1xx_HAL_Driver/Src/stm32f1xx_hal_dma.c **** 
 2245              		.loc 1 642 7 discriminator 65 view .LVU681
 2246 01d8 1432     		adds	r2, r2, #20
 2247 01da 9342     		cmp	r3, r2
 2248 01dc 14BF     		ite	ne
 2249 01de 4FF40032 		movne	r2, #131072
 2250 01e2 4FF40052 		moveq	r2, #8192
 2251              	.L245:
 642:Drivers/STM32F1xx_HAL_Driver/Src/stm32f1xx_hal_dma.c **** 
 2252              		.loc 1 642 7 discriminator 90 view .LVU682
 2253 01e6 2F4B     		ldr	r3, .L317+16
 2254 01e8 5A60     		str	r2, [r3, #4]
 2255              	.L244:
 645:Drivers/STM32F1xx_HAL_Driver/Src/stm32f1xx_hal_dma.c **** 
 2256              		.loc 1 645 5 is_stmt 1 view .LVU683
 645:Drivers/STM32F1xx_HAL_Driver/Src/stm32f1xx_hal_dma.c **** 
 2257              		.loc 1 645 5 view .LVU684
 2258 01ea 0022     		movs	r2, #0
 647:Drivers/STM32F1xx_HAL_Driver/Src/stm32f1xx_hal_dma.c ****     {
 2259              		.loc 1 647 12 is_stmt 0 view .LVU685
 2260 01ec 836A     		ldr	r3, [r0, #40]
 645:Drivers/STM32F1xx_HAL_Driver/Src/stm32f1xx_hal_dma.c **** 
 2261              		.loc 1 645 5 view .LVU686
 2262 01ee 80F82020 		strb	r2, [r0, #32]
 645:Drivers/STM32F1xx_HAL_Driver/Src/stm32f1xx_hal_dma.c **** 
 2263              		.loc 1 645 5 is_stmt 1 view .LVU687
 647:Drivers/STM32F1xx_HAL_Driver/Src/stm32f1xx_hal_dma.c ****     {
 2264              		.loc 1 647 5 view .LVU688
 647:Drivers/STM32F1xx_HAL_Driver/Src/stm32f1xx_hal_dma.c ****     {
 2265              		.loc 1 647 7 is_stmt 0 view .LVU689
 2266 01f2 002B     		cmp	r3, #0
 2267 01f4 3FF450AF 		beq	.L231
 2268              	.L316:
 650:Drivers/STM32F1xx_HAL_Driver/Src/stm32f1xx_hal_dma.c ****     }
 2269              		.loc 1 650 7 is_stmt 1 view .LVU690
 681:Drivers/STM32F1xx_HAL_Driver/Src/stm32f1xx_hal_dma.c **** 
 2270              		.loc 1 681 1 is_stmt 0 view .LVU691
 2271 01f8 70BC     		pop	{r4, r5, r6}
 2272              	.LCFI27:
 2273              		.cfi_remember_state
 2274              		.cfi_restore 6
 2275              		.cfi_restore 5
 2276              		.cfi_restore 4
 2277              		.cfi_def_cfa_offset 0
 2278              	.LVL80:
 650:Drivers/STM32F1xx_HAL_Driver/Src/stm32f1xx_hal_dma.c ****     }
 2279              		.loc 1 650 7 view .LVU692
 2280 01fa 1847     		bx	r3	@ indirect register sibling call
 2281              	.LVL81:
 2282              	.L288:
 2283              	.LCFI28:
 2284              		.cfi_restore_state
 642:Drivers/STM32F1xx_HAL_Driver/Src/stm32f1xx_hal_dma.c **** 
 2285              		.loc 1 642 7 view .LVU693
 2286 01fc 2022     		movs	r2, #32
ARM GAS  C:\Users\86184\AppData\Local\Temp\ccT1ePg0.s 			page 67


 2287 01fe F2E7     		b	.L245
 2288              	.L277:
 2289 0200 2022     		movs	r2, #32
 2290 0202 8CE7     		b	.L243
 2291              	.L267:
 618:Drivers/STM32F1xx_HAL_Driver/Src/stm32f1xx_hal_dma.c **** 
 2292              		.loc 1 618 5 view .LVU694
 2293 0204 4FF48063 		mov	r3, #1024
 2294 0208 C7E7     		b	.L237
 2295              	.L256:
 2296 020a 4FF48063 		mov	r3, #1024
 2297 020e 3DE7     		b	.L235
 2298              	.L265:
 2299 0210 0423     		movs	r3, #4
 2300 0212 C2E7     		b	.L237
 2301              	.L254:
 2302 0214 0423     		movs	r3, #4
 2303 0216 39E7     		b	.L235
 2304              	.L276:
 642:Drivers/STM32F1xx_HAL_Driver/Src/stm32f1xx_hal_dma.c **** 
 2305              		.loc 1 642 7 view .LVU695
 2306 0218 0222     		movs	r2, #2
 2307 021a 80E7     		b	.L243
 2308              	.L287:
 2309 021c 0222     		movs	r2, #2
 2310 021e E2E7     		b	.L245
 2311              	.L266:
 618:Drivers/STM32F1xx_HAL_Driver/Src/stm32f1xx_hal_dma.c **** 
 2312              		.loc 1 618 5 view .LVU696
 2313 0220 4023     		movs	r3, #64
 2314 0222 BAE7     		b	.L237
 2315              	.L255:
 2316 0224 4023     		movs	r3, #64
 2317 0226 31E7     		b	.L235
 2318              	.L278:
 642:Drivers/STM32F1xx_HAL_Driver/Src/stm32f1xx_hal_dma.c **** 
 2319              		.loc 1 642 7 view .LVU697
 2320 0228 4FF40072 		mov	r2, #512
 2321 022c 77E7     		b	.L243
 2322              	.L289:
 2323 022e 4FF40072 		mov	r2, #512
 2324 0232 D8E7     		b	.L245
 2325              	.L261:
 618:Drivers/STM32F1xx_HAL_Driver/Src/stm32f1xx_hal_dma.c **** 
 2326              		.loc 1 618 5 view .LVU698
 2327 0234 4FF48043 		mov	r3, #16384
 2328 0238 AFE7     		b	.L237
 2329              	.L250:
 2330 023a 4FF48043 		mov	r3, #16384
 2331 023e 25E7     		b	.L235
 2332              	.L272:
 642:Drivers/STM32F1xx_HAL_Driver/Src/stm32f1xx_hal_dma.c **** 
 2333              		.loc 1 642 7 view .LVU699
 2334 0240 4FF40052 		mov	r2, #8192
 2335 0244 6BE7     		b	.L243
 2336              	.L283:
 2337 0246 4FF40052 		mov	r2, #8192
ARM GAS  C:\Users\86184\AppData\Local\Temp\ccT1ePg0.s 			page 68


 2338 024a CCE7     		b	.L245
 2339              	.L262:
 618:Drivers/STM32F1xx_HAL_Driver/Src/stm32f1xx_hal_dma.c **** 
 2340              		.loc 1 618 5 view .LVU700
 2341 024c 4FF48023 		mov	r3, #262144
 2342 0250 A3E7     		b	.L237
 2343              	.L251:
 2344 0252 4FF48023 		mov	r3, #262144
 2345 0256 19E7     		b	.L235
 2346              	.L284:
 642:Drivers/STM32F1xx_HAL_Driver/Src/stm32f1xx_hal_dma.c **** 
 2347              		.loc 1 642 7 view .LVU701
 2348 0258 4FF40032 		mov	r2, #131072
 2349 025c C3E7     		b	.L245
 2350              	.L273:
 2351 025e 4FF40032 		mov	r2, #131072
 2352 0262 5CE7     		b	.L243
 2353              	.L252:
 618:Drivers/STM32F1xx_HAL_Driver/Src/stm32f1xx_hal_dma.c **** 
 2354              		.loc 1 618 5 view .LVU702
 2355 0264 4FF48003 		mov	r3, #4194304
 2356 0268 10E7     		b	.L235
 2357              	.L263:
 2358 026a 4FF48003 		mov	r3, #4194304
 2359 026e 94E7     		b	.L237
 2360              	.L285:
 642:Drivers/STM32F1xx_HAL_Driver/Src/stm32f1xx_hal_dma.c **** 
 2361              		.loc 1 642 7 view .LVU703
 2362 0270 4FF40012 		mov	r2, #2097152
 2363 0274 B7E7     		b	.L245
 2364              	.L274:
 2365 0276 4FF40012 		mov	r2, #2097152
 2366 027a 50E7     		b	.L243
 2367              	.L253:
 618:Drivers/STM32F1xx_HAL_Driver/Src/stm32f1xx_hal_dma.c **** 
 2368              		.loc 1 618 5 view .LVU704
 2369 027c 4FF08063 		mov	r3, #67108864
 2370 0280 04E7     		b	.L235
 2371              	.L264:
 2372 0282 4FF08063 		mov	r3, #67108864
 2373 0286 88E7     		b	.L237
 2374              	.L286:
 642:Drivers/STM32F1xx_HAL_Driver/Src/stm32f1xx_hal_dma.c **** 
 2375              		.loc 1 642 7 view .LVU705
 2376 0288 4FF00072 		mov	r2, #33554432
 2377 028c ABE7     		b	.L245
 2378              	.L275:
 2379 028e 4FF00072 		mov	r2, #33554432
 2380 0292 44E7     		b	.L243
 2381              	.L318:
 2382              		.align	2
 2383              	.L317:
 2384 0294 80000240 		.word	1073873024
 2385 0298 08000240 		.word	1073872904
 2386 029c 00040240 		.word	1073873920
 2387 02a0 08040240 		.word	1073873928
 2388 02a4 00000240 		.word	1073872896
ARM GAS  C:\Users\86184\AppData\Local\Temp\ccT1ePg0.s 			page 69


 2389              		.cfi_endproc
 2390              	.LFE72:
 2392              		.section	.text.HAL_DMA_RegisterCallback,"ax",%progbits
 2393              		.align	1
 2394              		.p2align 2,,3
 2395              		.global	HAL_DMA_RegisterCallback
 2396              		.syntax unified
 2397              		.thumb
 2398              		.thumb_func
 2400              	HAL_DMA_RegisterCallback:
 2401              	.LVL82:
 2402              	.LFB73:
 694:Drivers/STM32F1xx_HAL_Driver/Src/stm32f1xx_hal_dma.c ****   HAL_StatusTypeDef status = HAL_OK;
 2403              		.loc 1 694 1 is_stmt 1 view -0
 2404              		.cfi_startproc
 2405              		@ args = 0, pretend = 0, frame = 0
 2406              		@ frame_needed = 0, uses_anonymous_args = 0
 2407              		@ link register save eliminated.
 695:Drivers/STM32F1xx_HAL_Driver/Src/stm32f1xx_hal_dma.c ****   
 2408              		.loc 1 695 3 view .LVU707
 698:Drivers/STM32F1xx_HAL_Driver/Src/stm32f1xx_hal_dma.c ****   
 2409              		.loc 1 698 3 view .LVU708
 698:Drivers/STM32F1xx_HAL_Driver/Src/stm32f1xx_hal_dma.c ****   
 2410              		.loc 1 698 3 view .LVU709
 694:Drivers/STM32F1xx_HAL_Driver/Src/stm32f1xx_hal_dma.c ****   HAL_StatusTypeDef status = HAL_OK;
 2411              		.loc 1 694 1 is_stmt 0 view .LVU710
 2412 0000 0346     		mov	r3, r0
 698:Drivers/STM32F1xx_HAL_Driver/Src/stm32f1xx_hal_dma.c ****   
 2413              		.loc 1 698 3 view .LVU711
 2414 0002 90F82000 		ldrb	r0, [r0, #32]	@ zero_extendqisi2
 2415              	.LVL83:
 698:Drivers/STM32F1xx_HAL_Driver/Src/stm32f1xx_hal_dma.c ****   
 2416              		.loc 1 698 3 view .LVU712
 2417 0006 0128     		cmp	r0, #1
 2418 0008 17D0     		beq	.L328
 698:Drivers/STM32F1xx_HAL_Driver/Src/stm32f1xx_hal_dma.c ****   
 2419              		.loc 1 698 3 is_stmt 1 discriminator 2 view .LVU713
 698:Drivers/STM32F1xx_HAL_Driver/Src/stm32f1xx_hal_dma.c ****   
 2420              		.loc 1 698 3 discriminator 2 view .LVU714
 700:Drivers/STM32F1xx_HAL_Driver/Src/stm32f1xx_hal_dma.c ****   {
 2421              		.loc 1 700 3 discriminator 2 view .LVU715
 700:Drivers/STM32F1xx_HAL_Driver/Src/stm32f1xx_hal_dma.c ****   {
 2422              		.loc 1 700 33 is_stmt 0 discriminator 2 view .LVU716
 2423 000a 93F82100 		ldrb	r0, [r3, #33]	@ zero_extendqisi2
 700:Drivers/STM32F1xx_HAL_Driver/Src/stm32f1xx_hal_dma.c ****   {
 2424              		.loc 1 700 5 discriminator 2 view .LVU717
 2425 000e 0128     		cmp	r0, #1
 2426 0010 04D0     		beq	.L331
 2427 0012 0120     		movs	r0, #1
 2428              	.L321:
 2429              	.LVL84:
 731:Drivers/STM32F1xx_HAL_Driver/Src/stm32f1xx_hal_dma.c ****   
 2430              		.loc 1 731 3 is_stmt 1 view .LVU718
 731:Drivers/STM32F1xx_HAL_Driver/Src/stm32f1xx_hal_dma.c ****   
 2431              		.loc 1 731 3 view .LVU719
 2432 0014 0022     		movs	r2, #0
 2433              	.LVL85:
ARM GAS  C:\Users\86184\AppData\Local\Temp\ccT1ePg0.s 			page 70


 731:Drivers/STM32F1xx_HAL_Driver/Src/stm32f1xx_hal_dma.c ****   
 2434              		.loc 1 731 3 is_stmt 0 view .LVU720
 2435 0016 83F82020 		strb	r2, [r3, #32]
 731:Drivers/STM32F1xx_HAL_Driver/Src/stm32f1xx_hal_dma.c ****   
 2436              		.loc 1 731 3 is_stmt 1 view .LVU721
 733:Drivers/STM32F1xx_HAL_Driver/Src/stm32f1xx_hal_dma.c **** }
 2437              		.loc 1 733 3 view .LVU722
 733:Drivers/STM32F1xx_HAL_Driver/Src/stm32f1xx_hal_dma.c **** }
 2438              		.loc 1 733 10 is_stmt 0 view .LVU723
 2439 001a 7047     		bx	lr
 2440              	.LVL86:
 2441              	.L331:
 702:Drivers/STM32F1xx_HAL_Driver/Src/stm32f1xx_hal_dma.c ****     {
 2442              		.loc 1 702 5 is_stmt 1 view .LVU724
 2443 001c 0329     		cmp	r1, #3
 2444 001e F9D8     		bhi	.L321
 2445 0020 DFE801F0 		tbb	[pc, r1]
 2446              	.L323:
 2447 0024 09       		.byte	(.L326-.L323)/2
 2448 0025 07       		.byte	(.L325-.L323)/2
 2449 0026 05       		.byte	(.L324-.L323)/2
 2450 0027 02       		.byte	(.L322-.L323)/2
 2451              		.p2align 1
 2452              	.L322:
 717:Drivers/STM32F1xx_HAL_Driver/Src/stm32f1xx_hal_dma.c ****       break; 
 2453              		.loc 1 717 7 view .LVU725
 717:Drivers/STM32F1xx_HAL_Driver/Src/stm32f1xx_hal_dma.c ****       break; 
 2454              		.loc 1 717 31 is_stmt 0 view .LVU726
 2455 0028 5A63     		str	r2, [r3, #52]
 718:Drivers/STM32F1xx_HAL_Driver/Src/stm32f1xx_hal_dma.c ****       
 2456              		.loc 1 718 7 is_stmt 1 view .LVU727
 2457              	.L327:
 695:Drivers/STM32F1xx_HAL_Driver/Src/stm32f1xx_hal_dma.c ****   
 2458              		.loc 1 695 21 is_stmt 0 view .LVU728
 2459 002a 0020     		movs	r0, #0
 2460 002c F2E7     		b	.L321
 2461              	.L324:
 713:Drivers/STM32F1xx_HAL_Driver/Src/stm32f1xx_hal_dma.c ****       break;         
 2462              		.loc 1 713 7 is_stmt 1 view .LVU729
 713:Drivers/STM32F1xx_HAL_Driver/Src/stm32f1xx_hal_dma.c ****       break;         
 2463              		.loc 1 713 31 is_stmt 0 view .LVU730
 2464 002e 1A63     		str	r2, [r3, #48]
 714:Drivers/STM32F1xx_HAL_Driver/Src/stm32f1xx_hal_dma.c ****       
 2465              		.loc 1 714 7 is_stmt 1 view .LVU731
 2466 0030 FBE7     		b	.L327
 2467              	.L325:
 709:Drivers/STM32F1xx_HAL_Driver/Src/stm32f1xx_hal_dma.c ****       break;         
 2468              		.loc 1 709 7 view .LVU732
 709:Drivers/STM32F1xx_HAL_Driver/Src/stm32f1xx_hal_dma.c ****       break;         
 2469              		.loc 1 709 34 is_stmt 0 view .LVU733
 2470 0032 DA62     		str	r2, [r3, #44]
 710:Drivers/STM32F1xx_HAL_Driver/Src/stm32f1xx_hal_dma.c **** 
 2471              		.loc 1 710 7 is_stmt 1 view .LVU734
 2472 0034 F9E7     		b	.L327
 2473              	.L326:
 705:Drivers/STM32F1xx_HAL_Driver/Src/stm32f1xx_hal_dma.c ****       break;
 2474              		.loc 1 705 7 view .LVU735
ARM GAS  C:\Users\86184\AppData\Local\Temp\ccT1ePg0.s 			page 71


 705:Drivers/STM32F1xx_HAL_Driver/Src/stm32f1xx_hal_dma.c ****       break;
 2475              		.loc 1 705 30 is_stmt 0 view .LVU736
 2476 0036 9A62     		str	r2, [r3, #40]
 706:Drivers/STM32F1xx_HAL_Driver/Src/stm32f1xx_hal_dma.c ****       
 2477              		.loc 1 706 7 is_stmt 1 view .LVU737
 2478 0038 F7E7     		b	.L327
 2479              	.L328:
 698:Drivers/STM32F1xx_HAL_Driver/Src/stm32f1xx_hal_dma.c ****   
 2480              		.loc 1 698 3 is_stmt 0 view .LVU738
 2481 003a 0220     		movs	r0, #2
 734:Drivers/STM32F1xx_HAL_Driver/Src/stm32f1xx_hal_dma.c **** 
 2482              		.loc 1 734 1 view .LVU739
 2483 003c 7047     		bx	lr
 2484              		.cfi_endproc
 2485              	.LFE73:
 2487 003e 00BF     		.section	.text.HAL_DMA_UnRegisterCallback,"ax",%progbits
 2488              		.align	1
 2489              		.p2align 2,,3
 2490              		.global	HAL_DMA_UnRegisterCallback
 2491              		.syntax unified
 2492              		.thumb
 2493              		.thumb_func
 2495              	HAL_DMA_UnRegisterCallback:
 2496              	.LVL87:
 2497              	.LFB74:
 745:Drivers/STM32F1xx_HAL_Driver/Src/stm32f1xx_hal_dma.c ****   HAL_StatusTypeDef status = HAL_OK;
 2498              		.loc 1 745 1 is_stmt 1 view -0
 2499              		.cfi_startproc
 2500              		@ args = 0, pretend = 0, frame = 0
 2501              		@ frame_needed = 0, uses_anonymous_args = 0
 2502              		@ link register save eliminated.
 746:Drivers/STM32F1xx_HAL_Driver/Src/stm32f1xx_hal_dma.c **** 
 2503              		.loc 1 746 3 view .LVU741
 749:Drivers/STM32F1xx_HAL_Driver/Src/stm32f1xx_hal_dma.c ****   
 2504              		.loc 1 749 3 view .LVU742
 749:Drivers/STM32F1xx_HAL_Driver/Src/stm32f1xx_hal_dma.c ****   
 2505              		.loc 1 749 3 view .LVU743
 2506 0000 90F82020 		ldrb	r2, [r0, #32]	@ zero_extendqisi2
 745:Drivers/STM32F1xx_HAL_Driver/Src/stm32f1xx_hal_dma.c ****   HAL_StatusTypeDef status = HAL_OK;
 2507              		.loc 1 745 1 is_stmt 0 view .LVU744
 2508 0004 0346     		mov	r3, r0
 749:Drivers/STM32F1xx_HAL_Driver/Src/stm32f1xx_hal_dma.c ****   
 2509              		.loc 1 749 3 view .LVU745
 2510 0006 012A     		cmp	r2, #1
 2511 0008 12D0     		beq	.L342
 749:Drivers/STM32F1xx_HAL_Driver/Src/stm32f1xx_hal_dma.c ****   
 2512              		.loc 1 749 3 is_stmt 1 discriminator 2 view .LVU746
 2513 000a 0122     		movs	r2, #1
 751:Drivers/STM32F1xx_HAL_Driver/Src/stm32f1xx_hal_dma.c ****   {
 2514              		.loc 1 751 33 is_stmt 0 discriminator 2 view .LVU747
 2515 000c 90F82100 		ldrb	r0, [r0, #33]	@ zero_extendqisi2
 2516              	.LVL88:
 749:Drivers/STM32F1xx_HAL_Driver/Src/stm32f1xx_hal_dma.c ****   
 2517              		.loc 1 749 3 discriminator 2 view .LVU748
 2518 0010 83F82020 		strb	r2, [r3, #32]
 749:Drivers/STM32F1xx_HAL_Driver/Src/stm32f1xx_hal_dma.c ****   
 2519              		.loc 1 749 3 is_stmt 1 discriminator 2 view .LVU749
ARM GAS  C:\Users\86184\AppData\Local\Temp\ccT1ePg0.s 			page 72


 751:Drivers/STM32F1xx_HAL_Driver/Src/stm32f1xx_hal_dma.c ****   {
 2520              		.loc 1 751 3 discriminator 2 view .LVU750
 751:Drivers/STM32F1xx_HAL_Driver/Src/stm32f1xx_hal_dma.c ****   {
 2521              		.loc 1 751 5 is_stmt 0 discriminator 2 view .LVU751
 2522 0014 9042     		cmp	r0, r2
 2523 0016 04D0     		beq	.L345
 2524 0018 1046     		mov	r0, r2
 2525              	.L334:
 2526              	.LVL89:
 789:Drivers/STM32F1xx_HAL_Driver/Src/stm32f1xx_hal_dma.c ****   
 2527              		.loc 1 789 3 is_stmt 1 view .LVU752
 789:Drivers/STM32F1xx_HAL_Driver/Src/stm32f1xx_hal_dma.c ****   
 2528              		.loc 1 789 3 view .LVU753
 2529 001a 0022     		movs	r2, #0
 2530 001c 83F82020 		strb	r2, [r3, #32]
 789:Drivers/STM32F1xx_HAL_Driver/Src/stm32f1xx_hal_dma.c ****   
 2531              		.loc 1 789 3 view .LVU754
 791:Drivers/STM32F1xx_HAL_Driver/Src/stm32f1xx_hal_dma.c **** }
 2532              		.loc 1 791 3 view .LVU755
 791:Drivers/STM32F1xx_HAL_Driver/Src/stm32f1xx_hal_dma.c **** }
 2533              		.loc 1 791 10 is_stmt 0 view .LVU756
 2534 0020 7047     		bx	lr
 2535              	.LVL90:
 2536              	.L345:
 753:Drivers/STM32F1xx_HAL_Driver/Src/stm32f1xx_hal_dma.c ****     {
 2537              		.loc 1 753 5 is_stmt 1 view .LVU757
 2538 0022 0429     		cmp	r1, #4
 2539 0024 F9D8     		bhi	.L334
 2540 0026 DFE801F0 		tbb	[pc, r1]
 2541              	.L336:
 2542 002a 0C       		.byte	(.L340-.L336)/2
 2543 002b 0F       		.byte	(.L339-.L336)/2
 2544 002c 12       		.byte	(.L338-.L336)/2
 2545 002d 15       		.byte	(.L337-.L336)/2
 2546 002e 05       		.byte	(.L335-.L336)/2
 2547              	.LVL91:
 2548 002f 00       		.p2align 1
 2549              	.L342:
 749:Drivers/STM32F1xx_HAL_Driver/Src/stm32f1xx_hal_dma.c ****   
 2550              		.loc 1 749 3 is_stmt 0 view .LVU758
 2551 0030 0220     		movs	r0, #2
 2552              	.LVL92:
 792:Drivers/STM32F1xx_HAL_Driver/Src/stm32f1xx_hal_dma.c ****   
 2553              		.loc 1 792 1 view .LVU759
 2554 0032 7047     		bx	lr
 2555              	.L335:
 772:Drivers/STM32F1xx_HAL_Driver/Src/stm32f1xx_hal_dma.c ****       hdma->XferHalfCpltCallback = NULL;
 2556              		.loc 1 772 7 is_stmt 1 view .LVU760
 773:Drivers/STM32F1xx_HAL_Driver/Src/stm32f1xx_hal_dma.c ****       hdma->XferErrorCallback = NULL;
 2557              		.loc 1 773 7 view .LVU761
 774:Drivers/STM32F1xx_HAL_Driver/Src/stm32f1xx_hal_dma.c ****       hdma->XferAbortCallback = NULL;
 2558              		.loc 1 774 7 view .LVU762
 775:Drivers/STM32F1xx_HAL_Driver/Src/stm32f1xx_hal_dma.c ****       break; 
 2559              		.loc 1 775 7 view .LVU763
 772:Drivers/STM32F1xx_HAL_Driver/Src/stm32f1xx_hal_dma.c ****       hdma->XferHalfCpltCallback = NULL;
 2560              		.loc 1 772 30 is_stmt 0 view .LVU764
 2561 0034 0022     		movs	r2, #0
ARM GAS  C:\Users\86184\AppData\Local\Temp\ccT1ePg0.s 			page 73


 2562 0036 9A62     		str	r2, [r3, #40]	@ unaligned
 2563 0038 DA62     		str	r2, [r3, #44]	@ unaligned
 2564 003a 1A63     		str	r2, [r3, #48]	@ unaligned
 2565 003c 5A63     		str	r2, [r3, #52]	@ unaligned
 776:Drivers/STM32F1xx_HAL_Driver/Src/stm32f1xx_hal_dma.c **** 
 2566              		.loc 1 776 7 is_stmt 1 view .LVU765
 2567              	.L341:
 746:Drivers/STM32F1xx_HAL_Driver/Src/stm32f1xx_hal_dma.c **** 
 2568              		.loc 1 746 21 is_stmt 0 view .LVU766
 2569 003e 0020     		movs	r0, #0
 2570 0040 EBE7     		b	.L334
 2571              	.L340:
 756:Drivers/STM32F1xx_HAL_Driver/Src/stm32f1xx_hal_dma.c ****       break;
 2572              		.loc 1 756 7 is_stmt 1 view .LVU767
 756:Drivers/STM32F1xx_HAL_Driver/Src/stm32f1xx_hal_dma.c ****       break;
 2573              		.loc 1 756 30 is_stmt 0 view .LVU768
 2574 0042 0022     		movs	r2, #0
 2575 0044 9A62     		str	r2, [r3, #40]
 757:Drivers/STM32F1xx_HAL_Driver/Src/stm32f1xx_hal_dma.c **** 
 2576              		.loc 1 757 7 is_stmt 1 view .LVU769
 2577 0046 FAE7     		b	.L341
 2578              	.L339:
 760:Drivers/STM32F1xx_HAL_Driver/Src/stm32f1xx_hal_dma.c ****       break;         
 2579              		.loc 1 760 7 view .LVU770
 760:Drivers/STM32F1xx_HAL_Driver/Src/stm32f1xx_hal_dma.c ****       break;         
 2580              		.loc 1 760 34 is_stmt 0 view .LVU771
 2581 0048 0022     		movs	r2, #0
 2582 004a DA62     		str	r2, [r3, #44]
 761:Drivers/STM32F1xx_HAL_Driver/Src/stm32f1xx_hal_dma.c **** 
 2583              		.loc 1 761 7 is_stmt 1 view .LVU772
 2584 004c F7E7     		b	.L341
 2585              	.L338:
 764:Drivers/STM32F1xx_HAL_Driver/Src/stm32f1xx_hal_dma.c ****       break;         
 2586              		.loc 1 764 7 view .LVU773
 764:Drivers/STM32F1xx_HAL_Driver/Src/stm32f1xx_hal_dma.c ****       break;         
 2587              		.loc 1 764 31 is_stmt 0 view .LVU774
 2588 004e 0022     		movs	r2, #0
 2589 0050 1A63     		str	r2, [r3, #48]
 765:Drivers/STM32F1xx_HAL_Driver/Src/stm32f1xx_hal_dma.c **** 
 2590              		.loc 1 765 7 is_stmt 1 view .LVU775
 2591 0052 F4E7     		b	.L341
 2592              	.L337:
 768:Drivers/STM32F1xx_HAL_Driver/Src/stm32f1xx_hal_dma.c ****       break; 
 2593              		.loc 1 768 7 view .LVU776
 768:Drivers/STM32F1xx_HAL_Driver/Src/stm32f1xx_hal_dma.c ****       break; 
 2594              		.loc 1 768 31 is_stmt 0 view .LVU777
 2595 0054 0022     		movs	r2, #0
 2596 0056 5A63     		str	r2, [r3, #52]
 769:Drivers/STM32F1xx_HAL_Driver/Src/stm32f1xx_hal_dma.c **** 
 2597              		.loc 1 769 7 is_stmt 1 view .LVU778
 2598 0058 F1E7     		b	.L341
 2599              		.cfi_endproc
 2600              	.LFE74:
 2602 005a 00BF     		.section	.text.HAL_DMA_GetState,"ax",%progbits
 2603              		.align	1
 2604              		.p2align 2,,3
 2605              		.global	HAL_DMA_GetState
ARM GAS  C:\Users\86184\AppData\Local\Temp\ccT1ePg0.s 			page 74


 2606              		.syntax unified
 2607              		.thumb
 2608              		.thumb_func
 2610              	HAL_DMA_GetState:
 2611              	.LVL93:
 2612              	.LFB75:
 821:Drivers/STM32F1xx_HAL_Driver/Src/stm32f1xx_hal_dma.c ****   /* Return DMA handle state */
 2613              		.loc 1 821 1 view -0
 2614              		.cfi_startproc
 2615              		@ args = 0, pretend = 0, frame = 0
 2616              		@ frame_needed = 0, uses_anonymous_args = 0
 2617              		@ link register save eliminated.
 823:Drivers/STM32F1xx_HAL_Driver/Src/stm32f1xx_hal_dma.c **** }
 2618              		.loc 1 823 3 view .LVU780
 824:Drivers/STM32F1xx_HAL_Driver/Src/stm32f1xx_hal_dma.c **** 
 2619              		.loc 1 824 1 is_stmt 0 view .LVU781
 2620 0000 90F82100 		ldrb	r0, [r0, #33]	@ zero_extendqisi2
 2621              	.LVL94:
 824:Drivers/STM32F1xx_HAL_Driver/Src/stm32f1xx_hal_dma.c **** 
 2622              		.loc 1 824 1 view .LVU782
 2623 0004 7047     		bx	lr
 2624              		.cfi_endproc
 2625              	.LFE75:
 2627 0006 00BF     		.section	.text.HAL_DMA_GetError,"ax",%progbits
 2628              		.align	1
 2629              		.p2align 2,,3
 2630              		.global	HAL_DMA_GetError
 2631              		.syntax unified
 2632              		.thumb
 2633              		.thumb_func
 2635              	HAL_DMA_GetError:
 2636              	.LVL95:
 2637              	.LFB76:
 833:Drivers/STM32F1xx_HAL_Driver/Src/stm32f1xx_hal_dma.c ****   return hdma->ErrorCode;
 2638              		.loc 1 833 1 is_stmt 1 view -0
 2639              		.cfi_startproc
 2640              		@ args = 0, pretend = 0, frame = 0
 2641              		@ frame_needed = 0, uses_anonymous_args = 0
 2642              		@ link register save eliminated.
 834:Drivers/STM32F1xx_HAL_Driver/Src/stm32f1xx_hal_dma.c **** }
 2643              		.loc 1 834 3 view .LVU784
 834:Drivers/STM32F1xx_HAL_Driver/Src/stm32f1xx_hal_dma.c **** }
 2644              		.loc 1 834 14 is_stmt 0 view .LVU785
 2645 0000 806B     		ldr	r0, [r0, #56]
 2646              	.LVL96:
 835:Drivers/STM32F1xx_HAL_Driver/Src/stm32f1xx_hal_dma.c **** 
 2647              		.loc 1 835 1 view .LVU786
 2648 0002 7047     		bx	lr
 2649              		.cfi_endproc
 2650              	.LFE76:
 2652              		.text
 2653              	.Letext0:
 2654              		.file 2 "d:\\appdev\\vsarm\\armcc\\arm-none-eabi\\include\\machine\\_default_types.h"
 2655              		.file 3 "d:\\appdev\\vsarm\\armcc\\arm-none-eabi\\include\\sys\\_stdint.h"
 2656              		.file 4 "Drivers/CMSIS/Device/ST/STM32F1xx/Include/stm32f103xe.h"
 2657              		.file 5 "Drivers/CMSIS/Device/ST/STM32F1xx/Include/stm32f1xx.h"
 2658              		.file 6 "Drivers/STM32F1xx_HAL_Driver/Inc/stm32f1xx_hal_def.h"
ARM GAS  C:\Users\86184\AppData\Local\Temp\ccT1ePg0.s 			page 75


 2659              		.file 7 "Drivers/STM32F1xx_HAL_Driver/Inc/stm32f1xx_hal_dma.h"
 2660              		.file 8 "Drivers/STM32F1xx_HAL_Driver/Inc/stm32f1xx_hal.h"
ARM GAS  C:\Users\86184\AppData\Local\Temp\ccT1ePg0.s 			page 76

