ARM GAS  C:\Users\86184\AppData\Local\Temp\ccGaz80f.s 			page 1


   1              		.cpu cortex-m3
   2              		.arch armv7-m
   3              		.fpu softvfp
   4              		.eabi_attribute 20, 1
   5              		.eabi_attribute 21, 1
   6              		.eabi_attribute 23, 3
   7              		.eabi_attribute 24, 1
   8              		.eabi_attribute 25, 1
   9              		.eabi_attribute 26, 1
  10              		.eabi_attribute 30, 2
  11              		.eabi_attribute 34, 1
  12              		.eabi_attribute 18, 4
  13              		.file	"stm32f1xx_hal_flash.c"
  14              		.text
  15              	.Ltext0:
  16              		.cfi_sections	.debug_frame
  17              		.file 1 "Drivers/STM32F1xx_HAL_Driver/Src/stm32f1xx_hal_flash.c"
  18              		.section	.text.FLASH_SetErrorCode,"ax",%progbits
  19              		.align	1
  20              		.p2align 2,,3
  21              		.syntax unified
  22              		.thumb
  23              		.thumb_func
  25              	FLASH_SetErrorCode:
  26              	.LFB78:
   1:Drivers/STM32F1xx_HAL_Driver/Src/stm32f1xx_hal_flash.c **** /**
   2:Drivers/STM32F1xx_HAL_Driver/Src/stm32f1xx_hal_flash.c ****   ******************************************************************************
   3:Drivers/STM32F1xx_HAL_Driver/Src/stm32f1xx_hal_flash.c ****   * @file    stm32f1xx_hal_flash.c
   4:Drivers/STM32F1xx_HAL_Driver/Src/stm32f1xx_hal_flash.c ****   * @author  MCD Application Team
   5:Drivers/STM32F1xx_HAL_Driver/Src/stm32f1xx_hal_flash.c ****   * @brief   FLASH HAL module driver.
   6:Drivers/STM32F1xx_HAL_Driver/Src/stm32f1xx_hal_flash.c ****   *          This file provides firmware functions to manage the following 
   7:Drivers/STM32F1xx_HAL_Driver/Src/stm32f1xx_hal_flash.c ****   *          functionalities of the internal FLASH memory:
   8:Drivers/STM32F1xx_HAL_Driver/Src/stm32f1xx_hal_flash.c ****   *           + Program operations functions
   9:Drivers/STM32F1xx_HAL_Driver/Src/stm32f1xx_hal_flash.c ****   *           + Memory Control functions 
  10:Drivers/STM32F1xx_HAL_Driver/Src/stm32f1xx_hal_flash.c ****   *           + Peripheral State functions
  11:Drivers/STM32F1xx_HAL_Driver/Src/stm32f1xx_hal_flash.c ****   *         
  12:Drivers/STM32F1xx_HAL_Driver/Src/stm32f1xx_hal_flash.c ****   @verbatim
  13:Drivers/STM32F1xx_HAL_Driver/Src/stm32f1xx_hal_flash.c ****   ==============================================================================
  14:Drivers/STM32F1xx_HAL_Driver/Src/stm32f1xx_hal_flash.c ****                         ##### FLASH peripheral features #####
  15:Drivers/STM32F1xx_HAL_Driver/Src/stm32f1xx_hal_flash.c ****   ==============================================================================
  16:Drivers/STM32F1xx_HAL_Driver/Src/stm32f1xx_hal_flash.c ****   [..] The Flash memory interface manages CPU AHB I-Code and D-Code accesses 
  17:Drivers/STM32F1xx_HAL_Driver/Src/stm32f1xx_hal_flash.c ****        to the Flash memory. It implements the erase and program Flash memory operations 
  18:Drivers/STM32F1xx_HAL_Driver/Src/stm32f1xx_hal_flash.c ****        and the read and write protection mechanisms.
  19:Drivers/STM32F1xx_HAL_Driver/Src/stm32f1xx_hal_flash.c **** 
  20:Drivers/STM32F1xx_HAL_Driver/Src/stm32f1xx_hal_flash.c ****   [..] The Flash memory interface accelerates code execution with a system of instruction
  21:Drivers/STM32F1xx_HAL_Driver/Src/stm32f1xx_hal_flash.c ****       prefetch. 
  22:Drivers/STM32F1xx_HAL_Driver/Src/stm32f1xx_hal_flash.c **** 
  23:Drivers/STM32F1xx_HAL_Driver/Src/stm32f1xx_hal_flash.c ****   [..] The FLASH main features are:
  24:Drivers/STM32F1xx_HAL_Driver/Src/stm32f1xx_hal_flash.c ****       (+) Flash memory read operations
  25:Drivers/STM32F1xx_HAL_Driver/Src/stm32f1xx_hal_flash.c ****       (+) Flash memory program/erase operations
  26:Drivers/STM32F1xx_HAL_Driver/Src/stm32f1xx_hal_flash.c ****       (+) Read / write protections
  27:Drivers/STM32F1xx_HAL_Driver/Src/stm32f1xx_hal_flash.c ****       (+) Prefetch on I-Code
  28:Drivers/STM32F1xx_HAL_Driver/Src/stm32f1xx_hal_flash.c ****       (+) Option Bytes programming
  29:Drivers/STM32F1xx_HAL_Driver/Src/stm32f1xx_hal_flash.c **** 
  30:Drivers/STM32F1xx_HAL_Driver/Src/stm32f1xx_hal_flash.c **** 
  31:Drivers/STM32F1xx_HAL_Driver/Src/stm32f1xx_hal_flash.c ****                      ##### How to use this driver #####
  32:Drivers/STM32F1xx_HAL_Driver/Src/stm32f1xx_hal_flash.c ****   ==============================================================================
ARM GAS  C:\Users\86184\AppData\Local\Temp\ccGaz80f.s 			page 2


  33:Drivers/STM32F1xx_HAL_Driver/Src/stm32f1xx_hal_flash.c ****   [..]                             
  34:Drivers/STM32F1xx_HAL_Driver/Src/stm32f1xx_hal_flash.c ****       This driver provides functions and macros to configure and program the FLASH 
  35:Drivers/STM32F1xx_HAL_Driver/Src/stm32f1xx_hal_flash.c ****       memory of all STM32F1xx devices.
  36:Drivers/STM32F1xx_HAL_Driver/Src/stm32f1xx_hal_flash.c ****     
  37:Drivers/STM32F1xx_HAL_Driver/Src/stm32f1xx_hal_flash.c ****       (#) FLASH Memory I/O Programming functions: this group includes all needed
  38:Drivers/STM32F1xx_HAL_Driver/Src/stm32f1xx_hal_flash.c ****           functions to erase and program the main memory:
  39:Drivers/STM32F1xx_HAL_Driver/Src/stm32f1xx_hal_flash.c ****         (++) Lock and Unlock the FLASH interface
  40:Drivers/STM32F1xx_HAL_Driver/Src/stm32f1xx_hal_flash.c ****         (++) Erase function: Erase page, erase all pages
  41:Drivers/STM32F1xx_HAL_Driver/Src/stm32f1xx_hal_flash.c ****         (++) Program functions: half word, word and doubleword
  42:Drivers/STM32F1xx_HAL_Driver/Src/stm32f1xx_hal_flash.c ****       (#) FLASH Option Bytes Programming functions: this group includes all needed
  43:Drivers/STM32F1xx_HAL_Driver/Src/stm32f1xx_hal_flash.c ****           functions to manage the Option Bytes:
  44:Drivers/STM32F1xx_HAL_Driver/Src/stm32f1xx_hal_flash.c ****         (++) Lock and Unlock the Option Bytes
  45:Drivers/STM32F1xx_HAL_Driver/Src/stm32f1xx_hal_flash.c ****         (++) Set/Reset the write protection
  46:Drivers/STM32F1xx_HAL_Driver/Src/stm32f1xx_hal_flash.c ****         (++) Set the Read protection Level
  47:Drivers/STM32F1xx_HAL_Driver/Src/stm32f1xx_hal_flash.c ****         (++) Program the user Option Bytes
  48:Drivers/STM32F1xx_HAL_Driver/Src/stm32f1xx_hal_flash.c ****         (++) Launch the Option Bytes loader
  49:Drivers/STM32F1xx_HAL_Driver/Src/stm32f1xx_hal_flash.c ****         (++) Erase Option Bytes
  50:Drivers/STM32F1xx_HAL_Driver/Src/stm32f1xx_hal_flash.c ****         (++) Program the data Option Bytes
  51:Drivers/STM32F1xx_HAL_Driver/Src/stm32f1xx_hal_flash.c ****         (++) Get the Write protection.
  52:Drivers/STM32F1xx_HAL_Driver/Src/stm32f1xx_hal_flash.c ****         (++) Get the user option bytes.
  53:Drivers/STM32F1xx_HAL_Driver/Src/stm32f1xx_hal_flash.c ****     
  54:Drivers/STM32F1xx_HAL_Driver/Src/stm32f1xx_hal_flash.c ****       (#) Interrupts and flags management functions : this group 
  55:Drivers/STM32F1xx_HAL_Driver/Src/stm32f1xx_hal_flash.c ****           includes all needed functions to:
  56:Drivers/STM32F1xx_HAL_Driver/Src/stm32f1xx_hal_flash.c ****         (++) Handle FLASH interrupts
  57:Drivers/STM32F1xx_HAL_Driver/Src/stm32f1xx_hal_flash.c ****         (++) Wait for last FLASH operation according to its status
  58:Drivers/STM32F1xx_HAL_Driver/Src/stm32f1xx_hal_flash.c ****         (++) Get error flag status
  59:Drivers/STM32F1xx_HAL_Driver/Src/stm32f1xx_hal_flash.c **** 
  60:Drivers/STM32F1xx_HAL_Driver/Src/stm32f1xx_hal_flash.c ****   [..] In addition to these function, this driver includes a set of macros allowing
  61:Drivers/STM32F1xx_HAL_Driver/Src/stm32f1xx_hal_flash.c ****        to handle the following operations:
  62:Drivers/STM32F1xx_HAL_Driver/Src/stm32f1xx_hal_flash.c ****       
  63:Drivers/STM32F1xx_HAL_Driver/Src/stm32f1xx_hal_flash.c ****       (+) Set/Get the latency
  64:Drivers/STM32F1xx_HAL_Driver/Src/stm32f1xx_hal_flash.c ****       (+) Enable/Disable the prefetch buffer
  65:Drivers/STM32F1xx_HAL_Driver/Src/stm32f1xx_hal_flash.c ****       (+) Enable/Disable the half cycle access
  66:Drivers/STM32F1xx_HAL_Driver/Src/stm32f1xx_hal_flash.c ****       (+) Enable/Disable the FLASH interrupts
  67:Drivers/STM32F1xx_HAL_Driver/Src/stm32f1xx_hal_flash.c ****       (+) Monitor the FLASH flags status
  68:Drivers/STM32F1xx_HAL_Driver/Src/stm32f1xx_hal_flash.c ****           
  69:Drivers/STM32F1xx_HAL_Driver/Src/stm32f1xx_hal_flash.c ****   @endverbatim
  70:Drivers/STM32F1xx_HAL_Driver/Src/stm32f1xx_hal_flash.c ****   ******************************************************************************
  71:Drivers/STM32F1xx_HAL_Driver/Src/stm32f1xx_hal_flash.c ****   * @attention
  72:Drivers/STM32F1xx_HAL_Driver/Src/stm32f1xx_hal_flash.c ****   *
  73:Drivers/STM32F1xx_HAL_Driver/Src/stm32f1xx_hal_flash.c ****   * <h2><center>&copy; Copyright (c) 2016 STMicroelectronics.
  74:Drivers/STM32F1xx_HAL_Driver/Src/stm32f1xx_hal_flash.c ****   * All rights reserved.</center></h2>
  75:Drivers/STM32F1xx_HAL_Driver/Src/stm32f1xx_hal_flash.c ****   *
  76:Drivers/STM32F1xx_HAL_Driver/Src/stm32f1xx_hal_flash.c ****   * This software component is licensed by ST under BSD 3-Clause license,
  77:Drivers/STM32F1xx_HAL_Driver/Src/stm32f1xx_hal_flash.c ****   * the "License"; You may not use this file except in compliance with the
  78:Drivers/STM32F1xx_HAL_Driver/Src/stm32f1xx_hal_flash.c ****   * License. You may obtain a copy of the License at:
  79:Drivers/STM32F1xx_HAL_Driver/Src/stm32f1xx_hal_flash.c ****   *                        opensource.org/licenses/BSD-3-Clause
  80:Drivers/STM32F1xx_HAL_Driver/Src/stm32f1xx_hal_flash.c ****   *
  81:Drivers/STM32F1xx_HAL_Driver/Src/stm32f1xx_hal_flash.c ****   ******************************************************************************
  82:Drivers/STM32F1xx_HAL_Driver/Src/stm32f1xx_hal_flash.c ****   */
  83:Drivers/STM32F1xx_HAL_Driver/Src/stm32f1xx_hal_flash.c **** 
  84:Drivers/STM32F1xx_HAL_Driver/Src/stm32f1xx_hal_flash.c **** /* Includes ------------------------------------------------------------------*/
  85:Drivers/STM32F1xx_HAL_Driver/Src/stm32f1xx_hal_flash.c **** #include "stm32f1xx_hal.h"
  86:Drivers/STM32F1xx_HAL_Driver/Src/stm32f1xx_hal_flash.c **** 
  87:Drivers/STM32F1xx_HAL_Driver/Src/stm32f1xx_hal_flash.c **** /** @addtogroup STM32F1xx_HAL_Driver
  88:Drivers/STM32F1xx_HAL_Driver/Src/stm32f1xx_hal_flash.c ****   * @{
  89:Drivers/STM32F1xx_HAL_Driver/Src/stm32f1xx_hal_flash.c ****   */
ARM GAS  C:\Users\86184\AppData\Local\Temp\ccGaz80f.s 			page 3


  90:Drivers/STM32F1xx_HAL_Driver/Src/stm32f1xx_hal_flash.c **** 
  91:Drivers/STM32F1xx_HAL_Driver/Src/stm32f1xx_hal_flash.c **** #ifdef HAL_FLASH_MODULE_ENABLED
  92:Drivers/STM32F1xx_HAL_Driver/Src/stm32f1xx_hal_flash.c **** 
  93:Drivers/STM32F1xx_HAL_Driver/Src/stm32f1xx_hal_flash.c **** /** @defgroup FLASH FLASH
  94:Drivers/STM32F1xx_HAL_Driver/Src/stm32f1xx_hal_flash.c ****   * @brief FLASH HAL module driver
  95:Drivers/STM32F1xx_HAL_Driver/Src/stm32f1xx_hal_flash.c ****   * @{
  96:Drivers/STM32F1xx_HAL_Driver/Src/stm32f1xx_hal_flash.c ****   */
  97:Drivers/STM32F1xx_HAL_Driver/Src/stm32f1xx_hal_flash.c **** 
  98:Drivers/STM32F1xx_HAL_Driver/Src/stm32f1xx_hal_flash.c **** /* Private typedef -----------------------------------------------------------*/
  99:Drivers/STM32F1xx_HAL_Driver/Src/stm32f1xx_hal_flash.c **** /* Private define ------------------------------------------------------------*/
 100:Drivers/STM32F1xx_HAL_Driver/Src/stm32f1xx_hal_flash.c **** /** @defgroup FLASH_Private_Constants FLASH Private Constants
 101:Drivers/STM32F1xx_HAL_Driver/Src/stm32f1xx_hal_flash.c ****   * @{
 102:Drivers/STM32F1xx_HAL_Driver/Src/stm32f1xx_hal_flash.c ****   */
 103:Drivers/STM32F1xx_HAL_Driver/Src/stm32f1xx_hal_flash.c **** /**
 104:Drivers/STM32F1xx_HAL_Driver/Src/stm32f1xx_hal_flash.c ****   * @}
 105:Drivers/STM32F1xx_HAL_Driver/Src/stm32f1xx_hal_flash.c ****   */
 106:Drivers/STM32F1xx_HAL_Driver/Src/stm32f1xx_hal_flash.c **** 
 107:Drivers/STM32F1xx_HAL_Driver/Src/stm32f1xx_hal_flash.c **** /* Private macro ---------------------------- ---------------------------------*/
 108:Drivers/STM32F1xx_HAL_Driver/Src/stm32f1xx_hal_flash.c **** /** @defgroup FLASH_Private_Macros FLASH Private Macros
 109:Drivers/STM32F1xx_HAL_Driver/Src/stm32f1xx_hal_flash.c ****   * @{
 110:Drivers/STM32F1xx_HAL_Driver/Src/stm32f1xx_hal_flash.c ****   */
 111:Drivers/STM32F1xx_HAL_Driver/Src/stm32f1xx_hal_flash.c ****  
 112:Drivers/STM32F1xx_HAL_Driver/Src/stm32f1xx_hal_flash.c **** /**
 113:Drivers/STM32F1xx_HAL_Driver/Src/stm32f1xx_hal_flash.c ****   * @}
 114:Drivers/STM32F1xx_HAL_Driver/Src/stm32f1xx_hal_flash.c ****   */
 115:Drivers/STM32F1xx_HAL_Driver/Src/stm32f1xx_hal_flash.c **** 
 116:Drivers/STM32F1xx_HAL_Driver/Src/stm32f1xx_hal_flash.c **** /* Private variables ---------------------------------------------------------*/
 117:Drivers/STM32F1xx_HAL_Driver/Src/stm32f1xx_hal_flash.c **** /** @defgroup FLASH_Private_Variables FLASH Private Variables
 118:Drivers/STM32F1xx_HAL_Driver/Src/stm32f1xx_hal_flash.c ****   * @{
 119:Drivers/STM32F1xx_HAL_Driver/Src/stm32f1xx_hal_flash.c ****   */
 120:Drivers/STM32F1xx_HAL_Driver/Src/stm32f1xx_hal_flash.c **** /* Variables used for Erase pages under interruption*/
 121:Drivers/STM32F1xx_HAL_Driver/Src/stm32f1xx_hal_flash.c **** FLASH_ProcessTypeDef pFlash;
 122:Drivers/STM32F1xx_HAL_Driver/Src/stm32f1xx_hal_flash.c **** /**
 123:Drivers/STM32F1xx_HAL_Driver/Src/stm32f1xx_hal_flash.c ****   * @}
 124:Drivers/STM32F1xx_HAL_Driver/Src/stm32f1xx_hal_flash.c ****   */
 125:Drivers/STM32F1xx_HAL_Driver/Src/stm32f1xx_hal_flash.c **** 
 126:Drivers/STM32F1xx_HAL_Driver/Src/stm32f1xx_hal_flash.c **** /* Private function prototypes -----------------------------------------------*/
 127:Drivers/STM32F1xx_HAL_Driver/Src/stm32f1xx_hal_flash.c **** /** @defgroup FLASH_Private_Functions FLASH Private Functions
 128:Drivers/STM32F1xx_HAL_Driver/Src/stm32f1xx_hal_flash.c ****   * @{
 129:Drivers/STM32F1xx_HAL_Driver/Src/stm32f1xx_hal_flash.c ****   */
 130:Drivers/STM32F1xx_HAL_Driver/Src/stm32f1xx_hal_flash.c **** static  void   FLASH_Program_HalfWord(uint32_t Address, uint16_t Data);
 131:Drivers/STM32F1xx_HAL_Driver/Src/stm32f1xx_hal_flash.c **** static  void   FLASH_SetErrorCode(void);
 132:Drivers/STM32F1xx_HAL_Driver/Src/stm32f1xx_hal_flash.c **** extern void    FLASH_PageErase(uint32_t PageAddress);
 133:Drivers/STM32F1xx_HAL_Driver/Src/stm32f1xx_hal_flash.c **** /**
 134:Drivers/STM32F1xx_HAL_Driver/Src/stm32f1xx_hal_flash.c ****   * @}
 135:Drivers/STM32F1xx_HAL_Driver/Src/stm32f1xx_hal_flash.c ****   */
 136:Drivers/STM32F1xx_HAL_Driver/Src/stm32f1xx_hal_flash.c **** 
 137:Drivers/STM32F1xx_HAL_Driver/Src/stm32f1xx_hal_flash.c **** /* Exported functions ---------------------------------------------------------*/
 138:Drivers/STM32F1xx_HAL_Driver/Src/stm32f1xx_hal_flash.c **** /** @defgroup FLASH_Exported_Functions FLASH Exported Functions
 139:Drivers/STM32F1xx_HAL_Driver/Src/stm32f1xx_hal_flash.c ****   * @{
 140:Drivers/STM32F1xx_HAL_Driver/Src/stm32f1xx_hal_flash.c ****   */
 141:Drivers/STM32F1xx_HAL_Driver/Src/stm32f1xx_hal_flash.c ****   
 142:Drivers/STM32F1xx_HAL_Driver/Src/stm32f1xx_hal_flash.c **** /** @defgroup FLASH_Exported_Functions_Group1 Programming operation functions 
 143:Drivers/STM32F1xx_HAL_Driver/Src/stm32f1xx_hal_flash.c ****   *  @brief   Programming operation functions 
 144:Drivers/STM32F1xx_HAL_Driver/Src/stm32f1xx_hal_flash.c ****   *
 145:Drivers/STM32F1xx_HAL_Driver/Src/stm32f1xx_hal_flash.c **** @verbatim   
 146:Drivers/STM32F1xx_HAL_Driver/Src/stm32f1xx_hal_flash.c **** @endverbatim
ARM GAS  C:\Users\86184\AppData\Local\Temp\ccGaz80f.s 			page 4


 147:Drivers/STM32F1xx_HAL_Driver/Src/stm32f1xx_hal_flash.c ****   * @{
 148:Drivers/STM32F1xx_HAL_Driver/Src/stm32f1xx_hal_flash.c ****   */
 149:Drivers/STM32F1xx_HAL_Driver/Src/stm32f1xx_hal_flash.c **** 
 150:Drivers/STM32F1xx_HAL_Driver/Src/stm32f1xx_hal_flash.c **** /**
 151:Drivers/STM32F1xx_HAL_Driver/Src/stm32f1xx_hal_flash.c ****   * @brief  Program halfword, word or double word at a specified address
 152:Drivers/STM32F1xx_HAL_Driver/Src/stm32f1xx_hal_flash.c ****   * @note   The function HAL_FLASH_Unlock() should be called before to unlock the FLASH interface
 153:Drivers/STM32F1xx_HAL_Driver/Src/stm32f1xx_hal_flash.c ****   *         The function HAL_FLASH_Lock() should be called after to lock the FLASH interface
 154:Drivers/STM32F1xx_HAL_Driver/Src/stm32f1xx_hal_flash.c ****   *
 155:Drivers/STM32F1xx_HAL_Driver/Src/stm32f1xx_hal_flash.c ****   * @note   If an erase and a program operations are requested simultaneously,    
 156:Drivers/STM32F1xx_HAL_Driver/Src/stm32f1xx_hal_flash.c ****   *         the erase operation is performed before the program one.
 157:Drivers/STM32F1xx_HAL_Driver/Src/stm32f1xx_hal_flash.c ****   *  
 158:Drivers/STM32F1xx_HAL_Driver/Src/stm32f1xx_hal_flash.c ****   * @note   FLASH should be previously erased before new programmation (only exception to this 
 159:Drivers/STM32F1xx_HAL_Driver/Src/stm32f1xx_hal_flash.c ****   *         is when 0x0000 is programmed)
 160:Drivers/STM32F1xx_HAL_Driver/Src/stm32f1xx_hal_flash.c ****   *
 161:Drivers/STM32F1xx_HAL_Driver/Src/stm32f1xx_hal_flash.c ****   * @param  TypeProgram:  Indicate the way to program at a specified address.
 162:Drivers/STM32F1xx_HAL_Driver/Src/stm32f1xx_hal_flash.c ****   *                       This parameter can be a value of @ref FLASH_Type_Program
 163:Drivers/STM32F1xx_HAL_Driver/Src/stm32f1xx_hal_flash.c ****   * @param  Address:      Specifies the address to be programmed.
 164:Drivers/STM32F1xx_HAL_Driver/Src/stm32f1xx_hal_flash.c ****   * @param  Data:         Specifies the data to be programmed
 165:Drivers/STM32F1xx_HAL_Driver/Src/stm32f1xx_hal_flash.c ****   * 
 166:Drivers/STM32F1xx_HAL_Driver/Src/stm32f1xx_hal_flash.c ****   * @retval HAL_StatusTypeDef HAL Status
 167:Drivers/STM32F1xx_HAL_Driver/Src/stm32f1xx_hal_flash.c ****   */
 168:Drivers/STM32F1xx_HAL_Driver/Src/stm32f1xx_hal_flash.c **** HAL_StatusTypeDef HAL_FLASH_Program(uint32_t TypeProgram, uint32_t Address, uint64_t Data)
 169:Drivers/STM32F1xx_HAL_Driver/Src/stm32f1xx_hal_flash.c **** {
 170:Drivers/STM32F1xx_HAL_Driver/Src/stm32f1xx_hal_flash.c ****   HAL_StatusTypeDef status = HAL_ERROR;
 171:Drivers/STM32F1xx_HAL_Driver/Src/stm32f1xx_hal_flash.c ****   uint8_t index = 0;
 172:Drivers/STM32F1xx_HAL_Driver/Src/stm32f1xx_hal_flash.c ****   uint8_t nbiterations = 0;
 173:Drivers/STM32F1xx_HAL_Driver/Src/stm32f1xx_hal_flash.c ****   
 174:Drivers/STM32F1xx_HAL_Driver/Src/stm32f1xx_hal_flash.c ****   /* Process Locked */
 175:Drivers/STM32F1xx_HAL_Driver/Src/stm32f1xx_hal_flash.c ****   __HAL_LOCK(&pFlash);
 176:Drivers/STM32F1xx_HAL_Driver/Src/stm32f1xx_hal_flash.c **** 
 177:Drivers/STM32F1xx_HAL_Driver/Src/stm32f1xx_hal_flash.c ****   /* Check the parameters */
 178:Drivers/STM32F1xx_HAL_Driver/Src/stm32f1xx_hal_flash.c ****   assert_param(IS_FLASH_TYPEPROGRAM(TypeProgram));
 179:Drivers/STM32F1xx_HAL_Driver/Src/stm32f1xx_hal_flash.c ****   assert_param(IS_FLASH_PROGRAM_ADDRESS(Address));
 180:Drivers/STM32F1xx_HAL_Driver/Src/stm32f1xx_hal_flash.c **** 
 181:Drivers/STM32F1xx_HAL_Driver/Src/stm32f1xx_hal_flash.c **** #if defined(FLASH_BANK2_END)
 182:Drivers/STM32F1xx_HAL_Driver/Src/stm32f1xx_hal_flash.c ****   if(Address <= FLASH_BANK1_END)
 183:Drivers/STM32F1xx_HAL_Driver/Src/stm32f1xx_hal_flash.c ****   {
 184:Drivers/STM32F1xx_HAL_Driver/Src/stm32f1xx_hal_flash.c **** #endif /* FLASH_BANK2_END */
 185:Drivers/STM32F1xx_HAL_Driver/Src/stm32f1xx_hal_flash.c ****     /* Wait for last operation to be completed */
 186:Drivers/STM32F1xx_HAL_Driver/Src/stm32f1xx_hal_flash.c ****     status = FLASH_WaitForLastOperation(FLASH_TIMEOUT_VALUE);
 187:Drivers/STM32F1xx_HAL_Driver/Src/stm32f1xx_hal_flash.c **** #if defined(FLASH_BANK2_END)
 188:Drivers/STM32F1xx_HAL_Driver/Src/stm32f1xx_hal_flash.c ****   }
 189:Drivers/STM32F1xx_HAL_Driver/Src/stm32f1xx_hal_flash.c ****   else
 190:Drivers/STM32F1xx_HAL_Driver/Src/stm32f1xx_hal_flash.c ****   {
 191:Drivers/STM32F1xx_HAL_Driver/Src/stm32f1xx_hal_flash.c ****     /* Wait for last operation to be completed */
 192:Drivers/STM32F1xx_HAL_Driver/Src/stm32f1xx_hal_flash.c ****     status = FLASH_WaitForLastOperationBank2(FLASH_TIMEOUT_VALUE);
 193:Drivers/STM32F1xx_HAL_Driver/Src/stm32f1xx_hal_flash.c ****   }
 194:Drivers/STM32F1xx_HAL_Driver/Src/stm32f1xx_hal_flash.c **** #endif /* FLASH_BANK2_END */
 195:Drivers/STM32F1xx_HAL_Driver/Src/stm32f1xx_hal_flash.c ****   
 196:Drivers/STM32F1xx_HAL_Driver/Src/stm32f1xx_hal_flash.c ****   if(status == HAL_OK)
 197:Drivers/STM32F1xx_HAL_Driver/Src/stm32f1xx_hal_flash.c ****   {
 198:Drivers/STM32F1xx_HAL_Driver/Src/stm32f1xx_hal_flash.c ****     if(TypeProgram == FLASH_TYPEPROGRAM_HALFWORD)
 199:Drivers/STM32F1xx_HAL_Driver/Src/stm32f1xx_hal_flash.c ****     {
 200:Drivers/STM32F1xx_HAL_Driver/Src/stm32f1xx_hal_flash.c ****       /* Program halfword (16-bit) at a specified address. */
 201:Drivers/STM32F1xx_HAL_Driver/Src/stm32f1xx_hal_flash.c ****       nbiterations = 1U;
 202:Drivers/STM32F1xx_HAL_Driver/Src/stm32f1xx_hal_flash.c ****     }
 203:Drivers/STM32F1xx_HAL_Driver/Src/stm32f1xx_hal_flash.c ****     else if(TypeProgram == FLASH_TYPEPROGRAM_WORD)
ARM GAS  C:\Users\86184\AppData\Local\Temp\ccGaz80f.s 			page 5


 204:Drivers/STM32F1xx_HAL_Driver/Src/stm32f1xx_hal_flash.c ****     {
 205:Drivers/STM32F1xx_HAL_Driver/Src/stm32f1xx_hal_flash.c ****       /* Program word (32-bit = 2*16-bit) at a specified address. */
 206:Drivers/STM32F1xx_HAL_Driver/Src/stm32f1xx_hal_flash.c ****       nbiterations = 2U;
 207:Drivers/STM32F1xx_HAL_Driver/Src/stm32f1xx_hal_flash.c ****     }
 208:Drivers/STM32F1xx_HAL_Driver/Src/stm32f1xx_hal_flash.c ****     else
 209:Drivers/STM32F1xx_HAL_Driver/Src/stm32f1xx_hal_flash.c ****     {
 210:Drivers/STM32F1xx_HAL_Driver/Src/stm32f1xx_hal_flash.c ****       /* Program double word (64-bit = 4*16-bit) at a specified address. */
 211:Drivers/STM32F1xx_HAL_Driver/Src/stm32f1xx_hal_flash.c ****       nbiterations = 4U;
 212:Drivers/STM32F1xx_HAL_Driver/Src/stm32f1xx_hal_flash.c ****     }
 213:Drivers/STM32F1xx_HAL_Driver/Src/stm32f1xx_hal_flash.c **** 
 214:Drivers/STM32F1xx_HAL_Driver/Src/stm32f1xx_hal_flash.c ****     for (index = 0U; index < nbiterations; index++)
 215:Drivers/STM32F1xx_HAL_Driver/Src/stm32f1xx_hal_flash.c ****     {
 216:Drivers/STM32F1xx_HAL_Driver/Src/stm32f1xx_hal_flash.c ****       FLASH_Program_HalfWord((Address + (2U*index)), (uint16_t)(Data >> (16U*index)));
 217:Drivers/STM32F1xx_HAL_Driver/Src/stm32f1xx_hal_flash.c **** 
 218:Drivers/STM32F1xx_HAL_Driver/Src/stm32f1xx_hal_flash.c **** #if defined(FLASH_BANK2_END)
 219:Drivers/STM32F1xx_HAL_Driver/Src/stm32f1xx_hal_flash.c ****       if(Address <= FLASH_BANK1_END)
 220:Drivers/STM32F1xx_HAL_Driver/Src/stm32f1xx_hal_flash.c ****       {
 221:Drivers/STM32F1xx_HAL_Driver/Src/stm32f1xx_hal_flash.c **** #endif /* FLASH_BANK2_END */
 222:Drivers/STM32F1xx_HAL_Driver/Src/stm32f1xx_hal_flash.c ****         /* Wait for last operation to be completed */
 223:Drivers/STM32F1xx_HAL_Driver/Src/stm32f1xx_hal_flash.c ****         status = FLASH_WaitForLastOperation(FLASH_TIMEOUT_VALUE);
 224:Drivers/STM32F1xx_HAL_Driver/Src/stm32f1xx_hal_flash.c ****     
 225:Drivers/STM32F1xx_HAL_Driver/Src/stm32f1xx_hal_flash.c ****         /* If the program operation is completed, disable the PG Bit */
 226:Drivers/STM32F1xx_HAL_Driver/Src/stm32f1xx_hal_flash.c ****         CLEAR_BIT(FLASH->CR, FLASH_CR_PG);
 227:Drivers/STM32F1xx_HAL_Driver/Src/stm32f1xx_hal_flash.c **** #if defined(FLASH_BANK2_END)
 228:Drivers/STM32F1xx_HAL_Driver/Src/stm32f1xx_hal_flash.c ****       }
 229:Drivers/STM32F1xx_HAL_Driver/Src/stm32f1xx_hal_flash.c ****       else
 230:Drivers/STM32F1xx_HAL_Driver/Src/stm32f1xx_hal_flash.c ****       {
 231:Drivers/STM32F1xx_HAL_Driver/Src/stm32f1xx_hal_flash.c ****         /* Wait for last operation to be completed */
 232:Drivers/STM32F1xx_HAL_Driver/Src/stm32f1xx_hal_flash.c ****         status = FLASH_WaitForLastOperationBank2(FLASH_TIMEOUT_VALUE);
 233:Drivers/STM32F1xx_HAL_Driver/Src/stm32f1xx_hal_flash.c ****         
 234:Drivers/STM32F1xx_HAL_Driver/Src/stm32f1xx_hal_flash.c ****         /* If the program operation is completed, disable the PG Bit */
 235:Drivers/STM32F1xx_HAL_Driver/Src/stm32f1xx_hal_flash.c ****         CLEAR_BIT(FLASH->CR2, FLASH_CR2_PG);
 236:Drivers/STM32F1xx_HAL_Driver/Src/stm32f1xx_hal_flash.c ****       }
 237:Drivers/STM32F1xx_HAL_Driver/Src/stm32f1xx_hal_flash.c **** #endif /* FLASH_BANK2_END */
 238:Drivers/STM32F1xx_HAL_Driver/Src/stm32f1xx_hal_flash.c ****       /* In case of error, stop programation procedure */
 239:Drivers/STM32F1xx_HAL_Driver/Src/stm32f1xx_hal_flash.c ****       if (status != HAL_OK)
 240:Drivers/STM32F1xx_HAL_Driver/Src/stm32f1xx_hal_flash.c ****       {
 241:Drivers/STM32F1xx_HAL_Driver/Src/stm32f1xx_hal_flash.c ****         break;
 242:Drivers/STM32F1xx_HAL_Driver/Src/stm32f1xx_hal_flash.c ****       }
 243:Drivers/STM32F1xx_HAL_Driver/Src/stm32f1xx_hal_flash.c ****     }
 244:Drivers/STM32F1xx_HAL_Driver/Src/stm32f1xx_hal_flash.c ****   }
 245:Drivers/STM32F1xx_HAL_Driver/Src/stm32f1xx_hal_flash.c **** 
 246:Drivers/STM32F1xx_HAL_Driver/Src/stm32f1xx_hal_flash.c ****   /* Process Unlocked */
 247:Drivers/STM32F1xx_HAL_Driver/Src/stm32f1xx_hal_flash.c ****   __HAL_UNLOCK(&pFlash);
 248:Drivers/STM32F1xx_HAL_Driver/Src/stm32f1xx_hal_flash.c **** 
 249:Drivers/STM32F1xx_HAL_Driver/Src/stm32f1xx_hal_flash.c ****   return status;
 250:Drivers/STM32F1xx_HAL_Driver/Src/stm32f1xx_hal_flash.c **** }
 251:Drivers/STM32F1xx_HAL_Driver/Src/stm32f1xx_hal_flash.c **** 
 252:Drivers/STM32F1xx_HAL_Driver/Src/stm32f1xx_hal_flash.c **** /**
 253:Drivers/STM32F1xx_HAL_Driver/Src/stm32f1xx_hal_flash.c ****   * @brief  Program halfword, word or double word at a specified address  with interrupt enabled.
 254:Drivers/STM32F1xx_HAL_Driver/Src/stm32f1xx_hal_flash.c ****   * @note   The function HAL_FLASH_Unlock() should be called before to unlock the FLASH interface
 255:Drivers/STM32F1xx_HAL_Driver/Src/stm32f1xx_hal_flash.c ****   *         The function HAL_FLASH_Lock() should be called after to lock the FLASH interface
 256:Drivers/STM32F1xx_HAL_Driver/Src/stm32f1xx_hal_flash.c ****   *
 257:Drivers/STM32F1xx_HAL_Driver/Src/stm32f1xx_hal_flash.c ****   * @note   If an erase and a program operations are requested simultaneously,    
 258:Drivers/STM32F1xx_HAL_Driver/Src/stm32f1xx_hal_flash.c ****   *         the erase operation is performed before the program one.
 259:Drivers/STM32F1xx_HAL_Driver/Src/stm32f1xx_hal_flash.c ****   *
 260:Drivers/STM32F1xx_HAL_Driver/Src/stm32f1xx_hal_flash.c ****   * @param  TypeProgram: Indicate the way to program at a specified address.
ARM GAS  C:\Users\86184\AppData\Local\Temp\ccGaz80f.s 			page 6


 261:Drivers/STM32F1xx_HAL_Driver/Src/stm32f1xx_hal_flash.c ****   *                      This parameter can be a value of @ref FLASH_Type_Program
 262:Drivers/STM32F1xx_HAL_Driver/Src/stm32f1xx_hal_flash.c ****   * @param  Address:     Specifies the address to be programmed.
 263:Drivers/STM32F1xx_HAL_Driver/Src/stm32f1xx_hal_flash.c ****   * @param  Data:        Specifies the data to be programmed
 264:Drivers/STM32F1xx_HAL_Driver/Src/stm32f1xx_hal_flash.c ****   * 
 265:Drivers/STM32F1xx_HAL_Driver/Src/stm32f1xx_hal_flash.c ****   * @retval HAL_StatusTypeDef HAL Status
 266:Drivers/STM32F1xx_HAL_Driver/Src/stm32f1xx_hal_flash.c ****   */
 267:Drivers/STM32F1xx_HAL_Driver/Src/stm32f1xx_hal_flash.c **** HAL_StatusTypeDef HAL_FLASH_Program_IT(uint32_t TypeProgram, uint32_t Address, uint64_t Data)
 268:Drivers/STM32F1xx_HAL_Driver/Src/stm32f1xx_hal_flash.c **** {
 269:Drivers/STM32F1xx_HAL_Driver/Src/stm32f1xx_hal_flash.c ****   HAL_StatusTypeDef status = HAL_OK;
 270:Drivers/STM32F1xx_HAL_Driver/Src/stm32f1xx_hal_flash.c ****   
 271:Drivers/STM32F1xx_HAL_Driver/Src/stm32f1xx_hal_flash.c ****   /* Process Locked */
 272:Drivers/STM32F1xx_HAL_Driver/Src/stm32f1xx_hal_flash.c ****   __HAL_LOCK(&pFlash);
 273:Drivers/STM32F1xx_HAL_Driver/Src/stm32f1xx_hal_flash.c **** 
 274:Drivers/STM32F1xx_HAL_Driver/Src/stm32f1xx_hal_flash.c ****   /* Check the parameters */
 275:Drivers/STM32F1xx_HAL_Driver/Src/stm32f1xx_hal_flash.c ****   assert_param(IS_FLASH_TYPEPROGRAM(TypeProgram));
 276:Drivers/STM32F1xx_HAL_Driver/Src/stm32f1xx_hal_flash.c ****   assert_param(IS_FLASH_PROGRAM_ADDRESS(Address));
 277:Drivers/STM32F1xx_HAL_Driver/Src/stm32f1xx_hal_flash.c **** 
 278:Drivers/STM32F1xx_HAL_Driver/Src/stm32f1xx_hal_flash.c **** #if defined(FLASH_BANK2_END)
 279:Drivers/STM32F1xx_HAL_Driver/Src/stm32f1xx_hal_flash.c ****   /* If procedure already ongoing, reject the next one */
 280:Drivers/STM32F1xx_HAL_Driver/Src/stm32f1xx_hal_flash.c ****   if (pFlash.ProcedureOnGoing != FLASH_PROC_NONE)
 281:Drivers/STM32F1xx_HAL_Driver/Src/stm32f1xx_hal_flash.c ****   {
 282:Drivers/STM32F1xx_HAL_Driver/Src/stm32f1xx_hal_flash.c ****     return HAL_ERROR;
 283:Drivers/STM32F1xx_HAL_Driver/Src/stm32f1xx_hal_flash.c ****   }
 284:Drivers/STM32F1xx_HAL_Driver/Src/stm32f1xx_hal_flash.c ****   
 285:Drivers/STM32F1xx_HAL_Driver/Src/stm32f1xx_hal_flash.c ****   if(Address <= FLASH_BANK1_END)
 286:Drivers/STM32F1xx_HAL_Driver/Src/stm32f1xx_hal_flash.c ****   {
 287:Drivers/STM32F1xx_HAL_Driver/Src/stm32f1xx_hal_flash.c ****     /* Enable End of FLASH Operation and Error source interrupts */
 288:Drivers/STM32F1xx_HAL_Driver/Src/stm32f1xx_hal_flash.c ****     __HAL_FLASH_ENABLE_IT(FLASH_IT_EOP_BANK1 | FLASH_IT_ERR_BANK1);
 289:Drivers/STM32F1xx_HAL_Driver/Src/stm32f1xx_hal_flash.c **** 
 290:Drivers/STM32F1xx_HAL_Driver/Src/stm32f1xx_hal_flash.c ****   }else
 291:Drivers/STM32F1xx_HAL_Driver/Src/stm32f1xx_hal_flash.c ****   {
 292:Drivers/STM32F1xx_HAL_Driver/Src/stm32f1xx_hal_flash.c ****     /* Enable End of FLASH Operation and Error source interrupts */
 293:Drivers/STM32F1xx_HAL_Driver/Src/stm32f1xx_hal_flash.c ****     __HAL_FLASH_ENABLE_IT(FLASH_IT_EOP_BANK2 | FLASH_IT_ERR_BANK2);
 294:Drivers/STM32F1xx_HAL_Driver/Src/stm32f1xx_hal_flash.c ****   }
 295:Drivers/STM32F1xx_HAL_Driver/Src/stm32f1xx_hal_flash.c **** #else
 296:Drivers/STM32F1xx_HAL_Driver/Src/stm32f1xx_hal_flash.c ****   /* Enable End of FLASH Operation and Error source interrupts */
 297:Drivers/STM32F1xx_HAL_Driver/Src/stm32f1xx_hal_flash.c ****   __HAL_FLASH_ENABLE_IT(FLASH_IT_EOP | FLASH_IT_ERR);
 298:Drivers/STM32F1xx_HAL_Driver/Src/stm32f1xx_hal_flash.c **** #endif /* FLASH_BANK2_END */
 299:Drivers/STM32F1xx_HAL_Driver/Src/stm32f1xx_hal_flash.c ****   
 300:Drivers/STM32F1xx_HAL_Driver/Src/stm32f1xx_hal_flash.c ****   pFlash.Address = Address;
 301:Drivers/STM32F1xx_HAL_Driver/Src/stm32f1xx_hal_flash.c ****   pFlash.Data = Data;
 302:Drivers/STM32F1xx_HAL_Driver/Src/stm32f1xx_hal_flash.c **** 
 303:Drivers/STM32F1xx_HAL_Driver/Src/stm32f1xx_hal_flash.c ****   if(TypeProgram == FLASH_TYPEPROGRAM_HALFWORD)
 304:Drivers/STM32F1xx_HAL_Driver/Src/stm32f1xx_hal_flash.c ****   {
 305:Drivers/STM32F1xx_HAL_Driver/Src/stm32f1xx_hal_flash.c ****     pFlash.ProcedureOnGoing = FLASH_PROC_PROGRAMHALFWORD;
 306:Drivers/STM32F1xx_HAL_Driver/Src/stm32f1xx_hal_flash.c ****     /* Program halfword (16-bit) at a specified address. */
 307:Drivers/STM32F1xx_HAL_Driver/Src/stm32f1xx_hal_flash.c ****     pFlash.DataRemaining = 1U;
 308:Drivers/STM32F1xx_HAL_Driver/Src/stm32f1xx_hal_flash.c ****   }
 309:Drivers/STM32F1xx_HAL_Driver/Src/stm32f1xx_hal_flash.c ****   else if(TypeProgram == FLASH_TYPEPROGRAM_WORD)
 310:Drivers/STM32F1xx_HAL_Driver/Src/stm32f1xx_hal_flash.c ****   {
 311:Drivers/STM32F1xx_HAL_Driver/Src/stm32f1xx_hal_flash.c ****     pFlash.ProcedureOnGoing = FLASH_PROC_PROGRAMWORD;
 312:Drivers/STM32F1xx_HAL_Driver/Src/stm32f1xx_hal_flash.c ****     /* Program word (32-bit : 2*16-bit) at a specified address. */
 313:Drivers/STM32F1xx_HAL_Driver/Src/stm32f1xx_hal_flash.c ****     pFlash.DataRemaining = 2U;
 314:Drivers/STM32F1xx_HAL_Driver/Src/stm32f1xx_hal_flash.c ****   }
 315:Drivers/STM32F1xx_HAL_Driver/Src/stm32f1xx_hal_flash.c ****   else
 316:Drivers/STM32F1xx_HAL_Driver/Src/stm32f1xx_hal_flash.c ****   {
 317:Drivers/STM32F1xx_HAL_Driver/Src/stm32f1xx_hal_flash.c ****     pFlash.ProcedureOnGoing = FLASH_PROC_PROGRAMDOUBLEWORD;
ARM GAS  C:\Users\86184\AppData\Local\Temp\ccGaz80f.s 			page 7


 318:Drivers/STM32F1xx_HAL_Driver/Src/stm32f1xx_hal_flash.c ****     /* Program double word (64-bit : 4*16-bit) at a specified address. */
 319:Drivers/STM32F1xx_HAL_Driver/Src/stm32f1xx_hal_flash.c ****     pFlash.DataRemaining = 4U;
 320:Drivers/STM32F1xx_HAL_Driver/Src/stm32f1xx_hal_flash.c ****   }
 321:Drivers/STM32F1xx_HAL_Driver/Src/stm32f1xx_hal_flash.c **** 
 322:Drivers/STM32F1xx_HAL_Driver/Src/stm32f1xx_hal_flash.c ****   /* Program halfword (16-bit) at a specified address. */
 323:Drivers/STM32F1xx_HAL_Driver/Src/stm32f1xx_hal_flash.c ****   FLASH_Program_HalfWord(Address, (uint16_t)Data);
 324:Drivers/STM32F1xx_HAL_Driver/Src/stm32f1xx_hal_flash.c **** 
 325:Drivers/STM32F1xx_HAL_Driver/Src/stm32f1xx_hal_flash.c ****   return status;
 326:Drivers/STM32F1xx_HAL_Driver/Src/stm32f1xx_hal_flash.c **** }
 327:Drivers/STM32F1xx_HAL_Driver/Src/stm32f1xx_hal_flash.c **** 
 328:Drivers/STM32F1xx_HAL_Driver/Src/stm32f1xx_hal_flash.c **** /**
 329:Drivers/STM32F1xx_HAL_Driver/Src/stm32f1xx_hal_flash.c ****   * @brief This function handles FLASH interrupt request.
 330:Drivers/STM32F1xx_HAL_Driver/Src/stm32f1xx_hal_flash.c ****   * @retval None
 331:Drivers/STM32F1xx_HAL_Driver/Src/stm32f1xx_hal_flash.c ****   */
 332:Drivers/STM32F1xx_HAL_Driver/Src/stm32f1xx_hal_flash.c **** void HAL_FLASH_IRQHandler(void)
 333:Drivers/STM32F1xx_HAL_Driver/Src/stm32f1xx_hal_flash.c **** {
 334:Drivers/STM32F1xx_HAL_Driver/Src/stm32f1xx_hal_flash.c ****   uint32_t addresstmp = 0U;
 335:Drivers/STM32F1xx_HAL_Driver/Src/stm32f1xx_hal_flash.c ****   
 336:Drivers/STM32F1xx_HAL_Driver/Src/stm32f1xx_hal_flash.c ****   /* Check FLASH operation error flags */
 337:Drivers/STM32F1xx_HAL_Driver/Src/stm32f1xx_hal_flash.c **** #if defined(FLASH_BANK2_END)
 338:Drivers/STM32F1xx_HAL_Driver/Src/stm32f1xx_hal_flash.c ****   if(__HAL_FLASH_GET_FLAG(FLASH_FLAG_WRPERR_BANK1) || __HAL_FLASH_GET_FLAG(FLASH_FLAG_PGERR_BANK1) 
 339:Drivers/STM32F1xx_HAL_Driver/Src/stm32f1xx_hal_flash.c ****     (__HAL_FLASH_GET_FLAG(FLASH_FLAG_WRPERR_BANK2) || __HAL_FLASH_GET_FLAG(FLASH_FLAG_PGERR_BANK2))
 340:Drivers/STM32F1xx_HAL_Driver/Src/stm32f1xx_hal_flash.c **** #else
 341:Drivers/STM32F1xx_HAL_Driver/Src/stm32f1xx_hal_flash.c ****   if(__HAL_FLASH_GET_FLAG(FLASH_FLAG_WRPERR) ||__HAL_FLASH_GET_FLAG(FLASH_FLAG_PGERR))
 342:Drivers/STM32F1xx_HAL_Driver/Src/stm32f1xx_hal_flash.c **** #endif /* FLASH_BANK2_END */
 343:Drivers/STM32F1xx_HAL_Driver/Src/stm32f1xx_hal_flash.c ****   {
 344:Drivers/STM32F1xx_HAL_Driver/Src/stm32f1xx_hal_flash.c ****     /* Return the faulty address */
 345:Drivers/STM32F1xx_HAL_Driver/Src/stm32f1xx_hal_flash.c ****     addresstmp = pFlash.Address;
 346:Drivers/STM32F1xx_HAL_Driver/Src/stm32f1xx_hal_flash.c ****     /* Reset address */
 347:Drivers/STM32F1xx_HAL_Driver/Src/stm32f1xx_hal_flash.c ****     pFlash.Address = 0xFFFFFFFFU;
 348:Drivers/STM32F1xx_HAL_Driver/Src/stm32f1xx_hal_flash.c ****   
 349:Drivers/STM32F1xx_HAL_Driver/Src/stm32f1xx_hal_flash.c ****     /* Save the Error code */
 350:Drivers/STM32F1xx_HAL_Driver/Src/stm32f1xx_hal_flash.c ****     FLASH_SetErrorCode();
 351:Drivers/STM32F1xx_HAL_Driver/Src/stm32f1xx_hal_flash.c ****     
 352:Drivers/STM32F1xx_HAL_Driver/Src/stm32f1xx_hal_flash.c ****     /* FLASH error interrupt user callback */
 353:Drivers/STM32F1xx_HAL_Driver/Src/stm32f1xx_hal_flash.c ****     HAL_FLASH_OperationErrorCallback(addresstmp);
 354:Drivers/STM32F1xx_HAL_Driver/Src/stm32f1xx_hal_flash.c **** 
 355:Drivers/STM32F1xx_HAL_Driver/Src/stm32f1xx_hal_flash.c ****     /* Stop the procedure ongoing */
 356:Drivers/STM32F1xx_HAL_Driver/Src/stm32f1xx_hal_flash.c ****     pFlash.ProcedureOnGoing = FLASH_PROC_NONE;
 357:Drivers/STM32F1xx_HAL_Driver/Src/stm32f1xx_hal_flash.c ****   }
 358:Drivers/STM32F1xx_HAL_Driver/Src/stm32f1xx_hal_flash.c **** 
 359:Drivers/STM32F1xx_HAL_Driver/Src/stm32f1xx_hal_flash.c ****   /* Check FLASH End of Operation flag  */
 360:Drivers/STM32F1xx_HAL_Driver/Src/stm32f1xx_hal_flash.c **** #if defined(FLASH_BANK2_END)
 361:Drivers/STM32F1xx_HAL_Driver/Src/stm32f1xx_hal_flash.c ****   if(__HAL_FLASH_GET_FLAG(FLASH_FLAG_EOP_BANK1))
 362:Drivers/STM32F1xx_HAL_Driver/Src/stm32f1xx_hal_flash.c ****   {
 363:Drivers/STM32F1xx_HAL_Driver/Src/stm32f1xx_hal_flash.c ****     /* Clear FLASH End of Operation pending bit */
 364:Drivers/STM32F1xx_HAL_Driver/Src/stm32f1xx_hal_flash.c ****     __HAL_FLASH_CLEAR_FLAG(FLASH_FLAG_EOP_BANK1);
 365:Drivers/STM32F1xx_HAL_Driver/Src/stm32f1xx_hal_flash.c **** #else
 366:Drivers/STM32F1xx_HAL_Driver/Src/stm32f1xx_hal_flash.c ****   if(__HAL_FLASH_GET_FLAG(FLASH_FLAG_EOP))
 367:Drivers/STM32F1xx_HAL_Driver/Src/stm32f1xx_hal_flash.c ****   {
 368:Drivers/STM32F1xx_HAL_Driver/Src/stm32f1xx_hal_flash.c ****     /* Clear FLASH End of Operation pending bit */
 369:Drivers/STM32F1xx_HAL_Driver/Src/stm32f1xx_hal_flash.c ****     __HAL_FLASH_CLEAR_FLAG(FLASH_FLAG_EOP);
 370:Drivers/STM32F1xx_HAL_Driver/Src/stm32f1xx_hal_flash.c **** #endif /* FLASH_BANK2_END */
 371:Drivers/STM32F1xx_HAL_Driver/Src/stm32f1xx_hal_flash.c ****     
 372:Drivers/STM32F1xx_HAL_Driver/Src/stm32f1xx_hal_flash.c ****     /* Process can continue only if no error detected */
 373:Drivers/STM32F1xx_HAL_Driver/Src/stm32f1xx_hal_flash.c ****     if(pFlash.ProcedureOnGoing != FLASH_PROC_NONE)
 374:Drivers/STM32F1xx_HAL_Driver/Src/stm32f1xx_hal_flash.c ****     {
ARM GAS  C:\Users\86184\AppData\Local\Temp\ccGaz80f.s 			page 8


 375:Drivers/STM32F1xx_HAL_Driver/Src/stm32f1xx_hal_flash.c ****       if(pFlash.ProcedureOnGoing == FLASH_PROC_PAGEERASE)
 376:Drivers/STM32F1xx_HAL_Driver/Src/stm32f1xx_hal_flash.c ****       {
 377:Drivers/STM32F1xx_HAL_Driver/Src/stm32f1xx_hal_flash.c ****         /* Nb of pages to erased can be decreased */
 378:Drivers/STM32F1xx_HAL_Driver/Src/stm32f1xx_hal_flash.c ****         pFlash.DataRemaining--;
 379:Drivers/STM32F1xx_HAL_Driver/Src/stm32f1xx_hal_flash.c **** 
 380:Drivers/STM32F1xx_HAL_Driver/Src/stm32f1xx_hal_flash.c ****         /* Check if there are still pages to erase */
 381:Drivers/STM32F1xx_HAL_Driver/Src/stm32f1xx_hal_flash.c ****         if(pFlash.DataRemaining != 0U)
 382:Drivers/STM32F1xx_HAL_Driver/Src/stm32f1xx_hal_flash.c ****         {
 383:Drivers/STM32F1xx_HAL_Driver/Src/stm32f1xx_hal_flash.c ****           addresstmp = pFlash.Address;
 384:Drivers/STM32F1xx_HAL_Driver/Src/stm32f1xx_hal_flash.c ****           /*Indicate user which sector has been erased */
 385:Drivers/STM32F1xx_HAL_Driver/Src/stm32f1xx_hal_flash.c ****           HAL_FLASH_EndOfOperationCallback(addresstmp);
 386:Drivers/STM32F1xx_HAL_Driver/Src/stm32f1xx_hal_flash.c **** 
 387:Drivers/STM32F1xx_HAL_Driver/Src/stm32f1xx_hal_flash.c ****           /*Increment sector number*/
 388:Drivers/STM32F1xx_HAL_Driver/Src/stm32f1xx_hal_flash.c ****           addresstmp = pFlash.Address + FLASH_PAGE_SIZE;
 389:Drivers/STM32F1xx_HAL_Driver/Src/stm32f1xx_hal_flash.c ****           pFlash.Address = addresstmp;
 390:Drivers/STM32F1xx_HAL_Driver/Src/stm32f1xx_hal_flash.c **** 
 391:Drivers/STM32F1xx_HAL_Driver/Src/stm32f1xx_hal_flash.c ****           /* If the erase operation is completed, disable the PER Bit */
 392:Drivers/STM32F1xx_HAL_Driver/Src/stm32f1xx_hal_flash.c ****           CLEAR_BIT(FLASH->CR, FLASH_CR_PER);
 393:Drivers/STM32F1xx_HAL_Driver/Src/stm32f1xx_hal_flash.c **** 
 394:Drivers/STM32F1xx_HAL_Driver/Src/stm32f1xx_hal_flash.c ****           FLASH_PageErase(addresstmp);
 395:Drivers/STM32F1xx_HAL_Driver/Src/stm32f1xx_hal_flash.c ****         }
 396:Drivers/STM32F1xx_HAL_Driver/Src/stm32f1xx_hal_flash.c ****         else
 397:Drivers/STM32F1xx_HAL_Driver/Src/stm32f1xx_hal_flash.c ****         {
 398:Drivers/STM32F1xx_HAL_Driver/Src/stm32f1xx_hal_flash.c ****           /* No more pages to Erase, user callback can be called. */
 399:Drivers/STM32F1xx_HAL_Driver/Src/stm32f1xx_hal_flash.c ****           /* Reset Sector and stop Erase pages procedure */
 400:Drivers/STM32F1xx_HAL_Driver/Src/stm32f1xx_hal_flash.c ****           pFlash.Address = addresstmp = 0xFFFFFFFFU;
 401:Drivers/STM32F1xx_HAL_Driver/Src/stm32f1xx_hal_flash.c ****           pFlash.ProcedureOnGoing = FLASH_PROC_NONE;
 402:Drivers/STM32F1xx_HAL_Driver/Src/stm32f1xx_hal_flash.c ****           /* FLASH EOP interrupt user callback */
 403:Drivers/STM32F1xx_HAL_Driver/Src/stm32f1xx_hal_flash.c ****           HAL_FLASH_EndOfOperationCallback(addresstmp);
 404:Drivers/STM32F1xx_HAL_Driver/Src/stm32f1xx_hal_flash.c ****         }
 405:Drivers/STM32F1xx_HAL_Driver/Src/stm32f1xx_hal_flash.c ****       }
 406:Drivers/STM32F1xx_HAL_Driver/Src/stm32f1xx_hal_flash.c ****       else if(pFlash.ProcedureOnGoing == FLASH_PROC_MASSERASE)
 407:Drivers/STM32F1xx_HAL_Driver/Src/stm32f1xx_hal_flash.c ****       {
 408:Drivers/STM32F1xx_HAL_Driver/Src/stm32f1xx_hal_flash.c ****         /* Operation is completed, disable the MER Bit */
 409:Drivers/STM32F1xx_HAL_Driver/Src/stm32f1xx_hal_flash.c ****         CLEAR_BIT(FLASH->CR, FLASH_CR_MER);
 410:Drivers/STM32F1xx_HAL_Driver/Src/stm32f1xx_hal_flash.c **** 
 411:Drivers/STM32F1xx_HAL_Driver/Src/stm32f1xx_hal_flash.c **** #if defined(FLASH_BANK2_END)
 412:Drivers/STM32F1xx_HAL_Driver/Src/stm32f1xx_hal_flash.c ****         /* Stop Mass Erase procedure if no pending mass erase on other bank */
 413:Drivers/STM32F1xx_HAL_Driver/Src/stm32f1xx_hal_flash.c ****         if (HAL_IS_BIT_CLR(FLASH->CR2, FLASH_CR2_MER))
 414:Drivers/STM32F1xx_HAL_Driver/Src/stm32f1xx_hal_flash.c ****         {
 415:Drivers/STM32F1xx_HAL_Driver/Src/stm32f1xx_hal_flash.c **** #endif /* FLASH_BANK2_END */
 416:Drivers/STM32F1xx_HAL_Driver/Src/stm32f1xx_hal_flash.c ****           /* MassErase ended. Return the selected bank */
 417:Drivers/STM32F1xx_HAL_Driver/Src/stm32f1xx_hal_flash.c ****           /* FLASH EOP interrupt user callback */
 418:Drivers/STM32F1xx_HAL_Driver/Src/stm32f1xx_hal_flash.c ****           HAL_FLASH_EndOfOperationCallback(0U);
 419:Drivers/STM32F1xx_HAL_Driver/Src/stm32f1xx_hal_flash.c **** 
 420:Drivers/STM32F1xx_HAL_Driver/Src/stm32f1xx_hal_flash.c ****           /* Stop Mass Erase procedure*/
 421:Drivers/STM32F1xx_HAL_Driver/Src/stm32f1xx_hal_flash.c ****           pFlash.ProcedureOnGoing = FLASH_PROC_NONE;
 422:Drivers/STM32F1xx_HAL_Driver/Src/stm32f1xx_hal_flash.c ****         }
 423:Drivers/STM32F1xx_HAL_Driver/Src/stm32f1xx_hal_flash.c **** #if defined(FLASH_BANK2_END)
 424:Drivers/STM32F1xx_HAL_Driver/Src/stm32f1xx_hal_flash.c ****       }
 425:Drivers/STM32F1xx_HAL_Driver/Src/stm32f1xx_hal_flash.c **** #endif /* FLASH_BANK2_END */
 426:Drivers/STM32F1xx_HAL_Driver/Src/stm32f1xx_hal_flash.c ****       else
 427:Drivers/STM32F1xx_HAL_Driver/Src/stm32f1xx_hal_flash.c ****       {
 428:Drivers/STM32F1xx_HAL_Driver/Src/stm32f1xx_hal_flash.c ****         /* Nb of 16-bit data to program can be decreased */
 429:Drivers/STM32F1xx_HAL_Driver/Src/stm32f1xx_hal_flash.c ****         pFlash.DataRemaining--;
 430:Drivers/STM32F1xx_HAL_Driver/Src/stm32f1xx_hal_flash.c ****         
 431:Drivers/STM32F1xx_HAL_Driver/Src/stm32f1xx_hal_flash.c ****         /* Check if there are still 16-bit data to program */
ARM GAS  C:\Users\86184\AppData\Local\Temp\ccGaz80f.s 			page 9


 432:Drivers/STM32F1xx_HAL_Driver/Src/stm32f1xx_hal_flash.c ****         if(pFlash.DataRemaining != 0U)
 433:Drivers/STM32F1xx_HAL_Driver/Src/stm32f1xx_hal_flash.c ****         {
 434:Drivers/STM32F1xx_HAL_Driver/Src/stm32f1xx_hal_flash.c ****           /* Increment address to 16-bit */
 435:Drivers/STM32F1xx_HAL_Driver/Src/stm32f1xx_hal_flash.c ****           pFlash.Address += 2U;
 436:Drivers/STM32F1xx_HAL_Driver/Src/stm32f1xx_hal_flash.c ****           addresstmp = pFlash.Address;
 437:Drivers/STM32F1xx_HAL_Driver/Src/stm32f1xx_hal_flash.c ****           
 438:Drivers/STM32F1xx_HAL_Driver/Src/stm32f1xx_hal_flash.c ****           /* Shift to have next 16-bit data */
 439:Drivers/STM32F1xx_HAL_Driver/Src/stm32f1xx_hal_flash.c ****           pFlash.Data = (pFlash.Data >> 16U);
 440:Drivers/STM32F1xx_HAL_Driver/Src/stm32f1xx_hal_flash.c ****           
 441:Drivers/STM32F1xx_HAL_Driver/Src/stm32f1xx_hal_flash.c ****           /* Operation is completed, disable the PG Bit */
 442:Drivers/STM32F1xx_HAL_Driver/Src/stm32f1xx_hal_flash.c ****           CLEAR_BIT(FLASH->CR, FLASH_CR_PG);
 443:Drivers/STM32F1xx_HAL_Driver/Src/stm32f1xx_hal_flash.c **** 
 444:Drivers/STM32F1xx_HAL_Driver/Src/stm32f1xx_hal_flash.c ****           /*Program halfword (16-bit) at a specified address.*/
 445:Drivers/STM32F1xx_HAL_Driver/Src/stm32f1xx_hal_flash.c ****           FLASH_Program_HalfWord(addresstmp, (uint16_t)pFlash.Data);
 446:Drivers/STM32F1xx_HAL_Driver/Src/stm32f1xx_hal_flash.c ****         }
 447:Drivers/STM32F1xx_HAL_Driver/Src/stm32f1xx_hal_flash.c ****         else
 448:Drivers/STM32F1xx_HAL_Driver/Src/stm32f1xx_hal_flash.c ****         {
 449:Drivers/STM32F1xx_HAL_Driver/Src/stm32f1xx_hal_flash.c ****           /* Program ended. Return the selected address */
 450:Drivers/STM32F1xx_HAL_Driver/Src/stm32f1xx_hal_flash.c ****           /* FLASH EOP interrupt user callback */
 451:Drivers/STM32F1xx_HAL_Driver/Src/stm32f1xx_hal_flash.c ****           if (pFlash.ProcedureOnGoing == FLASH_PROC_PROGRAMHALFWORD)
 452:Drivers/STM32F1xx_HAL_Driver/Src/stm32f1xx_hal_flash.c ****           {
 453:Drivers/STM32F1xx_HAL_Driver/Src/stm32f1xx_hal_flash.c ****             HAL_FLASH_EndOfOperationCallback(pFlash.Address);
 454:Drivers/STM32F1xx_HAL_Driver/Src/stm32f1xx_hal_flash.c ****           }
 455:Drivers/STM32F1xx_HAL_Driver/Src/stm32f1xx_hal_flash.c ****           else if (pFlash.ProcedureOnGoing == FLASH_PROC_PROGRAMWORD)
 456:Drivers/STM32F1xx_HAL_Driver/Src/stm32f1xx_hal_flash.c ****           {
 457:Drivers/STM32F1xx_HAL_Driver/Src/stm32f1xx_hal_flash.c ****             HAL_FLASH_EndOfOperationCallback(pFlash.Address - 2U);
 458:Drivers/STM32F1xx_HAL_Driver/Src/stm32f1xx_hal_flash.c ****           }
 459:Drivers/STM32F1xx_HAL_Driver/Src/stm32f1xx_hal_flash.c ****           else 
 460:Drivers/STM32F1xx_HAL_Driver/Src/stm32f1xx_hal_flash.c ****           {
 461:Drivers/STM32F1xx_HAL_Driver/Src/stm32f1xx_hal_flash.c ****             HAL_FLASH_EndOfOperationCallback(pFlash.Address - 6U);
 462:Drivers/STM32F1xx_HAL_Driver/Src/stm32f1xx_hal_flash.c ****           }
 463:Drivers/STM32F1xx_HAL_Driver/Src/stm32f1xx_hal_flash.c ****         
 464:Drivers/STM32F1xx_HAL_Driver/Src/stm32f1xx_hal_flash.c ****           /* Reset Address and stop Program procedure */
 465:Drivers/STM32F1xx_HAL_Driver/Src/stm32f1xx_hal_flash.c ****           pFlash.Address = 0xFFFFFFFFU;
 466:Drivers/STM32F1xx_HAL_Driver/Src/stm32f1xx_hal_flash.c ****           pFlash.ProcedureOnGoing = FLASH_PROC_NONE;
 467:Drivers/STM32F1xx_HAL_Driver/Src/stm32f1xx_hal_flash.c ****         }
 468:Drivers/STM32F1xx_HAL_Driver/Src/stm32f1xx_hal_flash.c ****       }
 469:Drivers/STM32F1xx_HAL_Driver/Src/stm32f1xx_hal_flash.c ****     }
 470:Drivers/STM32F1xx_HAL_Driver/Src/stm32f1xx_hal_flash.c ****   }
 471:Drivers/STM32F1xx_HAL_Driver/Src/stm32f1xx_hal_flash.c ****   
 472:Drivers/STM32F1xx_HAL_Driver/Src/stm32f1xx_hal_flash.c **** #if defined(FLASH_BANK2_END)
 473:Drivers/STM32F1xx_HAL_Driver/Src/stm32f1xx_hal_flash.c ****   /* Check FLASH End of Operation flag  */
 474:Drivers/STM32F1xx_HAL_Driver/Src/stm32f1xx_hal_flash.c ****   if(__HAL_FLASH_GET_FLAG( FLASH_FLAG_EOP_BANK2))
 475:Drivers/STM32F1xx_HAL_Driver/Src/stm32f1xx_hal_flash.c ****   {
 476:Drivers/STM32F1xx_HAL_Driver/Src/stm32f1xx_hal_flash.c ****     /* Clear FLASH End of Operation pending bit */
 477:Drivers/STM32F1xx_HAL_Driver/Src/stm32f1xx_hal_flash.c ****     __HAL_FLASH_CLEAR_FLAG(FLASH_FLAG_EOP_BANK2);
 478:Drivers/STM32F1xx_HAL_Driver/Src/stm32f1xx_hal_flash.c ****     
 479:Drivers/STM32F1xx_HAL_Driver/Src/stm32f1xx_hal_flash.c ****     /* Process can continue only if no error detected */
 480:Drivers/STM32F1xx_HAL_Driver/Src/stm32f1xx_hal_flash.c ****     if(pFlash.ProcedureOnGoing != FLASH_PROC_NONE)
 481:Drivers/STM32F1xx_HAL_Driver/Src/stm32f1xx_hal_flash.c ****     {
 482:Drivers/STM32F1xx_HAL_Driver/Src/stm32f1xx_hal_flash.c ****       if(pFlash.ProcedureOnGoing == FLASH_PROC_PAGEERASE)
 483:Drivers/STM32F1xx_HAL_Driver/Src/stm32f1xx_hal_flash.c ****       {
 484:Drivers/STM32F1xx_HAL_Driver/Src/stm32f1xx_hal_flash.c ****         /* Nb of pages to erased can be decreased */
 485:Drivers/STM32F1xx_HAL_Driver/Src/stm32f1xx_hal_flash.c ****         pFlash.DataRemaining--;
 486:Drivers/STM32F1xx_HAL_Driver/Src/stm32f1xx_hal_flash.c ****         
 487:Drivers/STM32F1xx_HAL_Driver/Src/stm32f1xx_hal_flash.c ****         /* Check if there are still pages to erase*/
 488:Drivers/STM32F1xx_HAL_Driver/Src/stm32f1xx_hal_flash.c ****         if(pFlash.DataRemaining != 0U)
ARM GAS  C:\Users\86184\AppData\Local\Temp\ccGaz80f.s 			page 10


 489:Drivers/STM32F1xx_HAL_Driver/Src/stm32f1xx_hal_flash.c ****         {
 490:Drivers/STM32F1xx_HAL_Driver/Src/stm32f1xx_hal_flash.c ****           /* Indicate user which page address has been erased*/
 491:Drivers/STM32F1xx_HAL_Driver/Src/stm32f1xx_hal_flash.c ****           HAL_FLASH_EndOfOperationCallback(pFlash.Address);
 492:Drivers/STM32F1xx_HAL_Driver/Src/stm32f1xx_hal_flash.c ****         
 493:Drivers/STM32F1xx_HAL_Driver/Src/stm32f1xx_hal_flash.c ****           /* Increment page address to next page */
 494:Drivers/STM32F1xx_HAL_Driver/Src/stm32f1xx_hal_flash.c ****           pFlash.Address += FLASH_PAGE_SIZE;
 495:Drivers/STM32F1xx_HAL_Driver/Src/stm32f1xx_hal_flash.c ****           addresstmp = pFlash.Address;
 496:Drivers/STM32F1xx_HAL_Driver/Src/stm32f1xx_hal_flash.c **** 
 497:Drivers/STM32F1xx_HAL_Driver/Src/stm32f1xx_hal_flash.c ****           /* Operation is completed, disable the PER Bit */
 498:Drivers/STM32F1xx_HAL_Driver/Src/stm32f1xx_hal_flash.c ****           CLEAR_BIT(FLASH->CR2, FLASH_CR2_PER);
 499:Drivers/STM32F1xx_HAL_Driver/Src/stm32f1xx_hal_flash.c **** 
 500:Drivers/STM32F1xx_HAL_Driver/Src/stm32f1xx_hal_flash.c ****           FLASH_PageErase(addresstmp);
 501:Drivers/STM32F1xx_HAL_Driver/Src/stm32f1xx_hal_flash.c ****         }
 502:Drivers/STM32F1xx_HAL_Driver/Src/stm32f1xx_hal_flash.c ****         else
 503:Drivers/STM32F1xx_HAL_Driver/Src/stm32f1xx_hal_flash.c ****         {
 504:Drivers/STM32F1xx_HAL_Driver/Src/stm32f1xx_hal_flash.c ****           /*No more pages to Erase*/
 505:Drivers/STM32F1xx_HAL_Driver/Src/stm32f1xx_hal_flash.c ****           
 506:Drivers/STM32F1xx_HAL_Driver/Src/stm32f1xx_hal_flash.c ****           /*Reset Address and stop Erase pages procedure*/
 507:Drivers/STM32F1xx_HAL_Driver/Src/stm32f1xx_hal_flash.c ****           pFlash.Address = 0xFFFFFFFFU;
 508:Drivers/STM32F1xx_HAL_Driver/Src/stm32f1xx_hal_flash.c ****           pFlash.ProcedureOnGoing = FLASH_PROC_NONE;
 509:Drivers/STM32F1xx_HAL_Driver/Src/stm32f1xx_hal_flash.c **** 
 510:Drivers/STM32F1xx_HAL_Driver/Src/stm32f1xx_hal_flash.c ****           /* FLASH EOP interrupt user callback */
 511:Drivers/STM32F1xx_HAL_Driver/Src/stm32f1xx_hal_flash.c ****           HAL_FLASH_EndOfOperationCallback(pFlash.Address);
 512:Drivers/STM32F1xx_HAL_Driver/Src/stm32f1xx_hal_flash.c ****         }
 513:Drivers/STM32F1xx_HAL_Driver/Src/stm32f1xx_hal_flash.c ****       }
 514:Drivers/STM32F1xx_HAL_Driver/Src/stm32f1xx_hal_flash.c ****       else if(pFlash.ProcedureOnGoing == FLASH_PROC_MASSERASE)
 515:Drivers/STM32F1xx_HAL_Driver/Src/stm32f1xx_hal_flash.c ****       {
 516:Drivers/STM32F1xx_HAL_Driver/Src/stm32f1xx_hal_flash.c ****         /* Operation is completed, disable the MER Bit */
 517:Drivers/STM32F1xx_HAL_Driver/Src/stm32f1xx_hal_flash.c ****         CLEAR_BIT(FLASH->CR2, FLASH_CR2_MER);
 518:Drivers/STM32F1xx_HAL_Driver/Src/stm32f1xx_hal_flash.c **** 
 519:Drivers/STM32F1xx_HAL_Driver/Src/stm32f1xx_hal_flash.c ****         if (HAL_IS_BIT_CLR(FLASH->CR, FLASH_CR_MER))
 520:Drivers/STM32F1xx_HAL_Driver/Src/stm32f1xx_hal_flash.c ****         {
 521:Drivers/STM32F1xx_HAL_Driver/Src/stm32f1xx_hal_flash.c ****           /* MassErase ended. Return the selected bank*/
 522:Drivers/STM32F1xx_HAL_Driver/Src/stm32f1xx_hal_flash.c ****           /* FLASH EOP interrupt user callback */
 523:Drivers/STM32F1xx_HAL_Driver/Src/stm32f1xx_hal_flash.c ****           HAL_FLASH_EndOfOperationCallback(0U);
 524:Drivers/STM32F1xx_HAL_Driver/Src/stm32f1xx_hal_flash.c ****         
 525:Drivers/STM32F1xx_HAL_Driver/Src/stm32f1xx_hal_flash.c ****           pFlash.ProcedureOnGoing = FLASH_PROC_NONE;
 526:Drivers/STM32F1xx_HAL_Driver/Src/stm32f1xx_hal_flash.c ****         }
 527:Drivers/STM32F1xx_HAL_Driver/Src/stm32f1xx_hal_flash.c ****       }
 528:Drivers/STM32F1xx_HAL_Driver/Src/stm32f1xx_hal_flash.c ****       else
 529:Drivers/STM32F1xx_HAL_Driver/Src/stm32f1xx_hal_flash.c ****       {
 530:Drivers/STM32F1xx_HAL_Driver/Src/stm32f1xx_hal_flash.c ****         /* Nb of 16-bit data to program can be decreased */
 531:Drivers/STM32F1xx_HAL_Driver/Src/stm32f1xx_hal_flash.c ****         pFlash.DataRemaining--;
 532:Drivers/STM32F1xx_HAL_Driver/Src/stm32f1xx_hal_flash.c ****         
 533:Drivers/STM32F1xx_HAL_Driver/Src/stm32f1xx_hal_flash.c ****         /* Check if there are still 16-bit data to program */
 534:Drivers/STM32F1xx_HAL_Driver/Src/stm32f1xx_hal_flash.c ****         if(pFlash.DataRemaining != 0U)
 535:Drivers/STM32F1xx_HAL_Driver/Src/stm32f1xx_hal_flash.c ****         {
 536:Drivers/STM32F1xx_HAL_Driver/Src/stm32f1xx_hal_flash.c ****           /* Increment address to 16-bit */
 537:Drivers/STM32F1xx_HAL_Driver/Src/stm32f1xx_hal_flash.c ****           pFlash.Address += 2U;
 538:Drivers/STM32F1xx_HAL_Driver/Src/stm32f1xx_hal_flash.c ****           addresstmp = pFlash.Address;
 539:Drivers/STM32F1xx_HAL_Driver/Src/stm32f1xx_hal_flash.c ****           
 540:Drivers/STM32F1xx_HAL_Driver/Src/stm32f1xx_hal_flash.c ****           /* Shift to have next 16-bit data */
 541:Drivers/STM32F1xx_HAL_Driver/Src/stm32f1xx_hal_flash.c ****           pFlash.Data = (pFlash.Data >> 16U);
 542:Drivers/STM32F1xx_HAL_Driver/Src/stm32f1xx_hal_flash.c ****           
 543:Drivers/STM32F1xx_HAL_Driver/Src/stm32f1xx_hal_flash.c ****           /* Operation is completed, disable the PG Bit */
 544:Drivers/STM32F1xx_HAL_Driver/Src/stm32f1xx_hal_flash.c ****           CLEAR_BIT(FLASH->CR2, FLASH_CR2_PG);
 545:Drivers/STM32F1xx_HAL_Driver/Src/stm32f1xx_hal_flash.c **** 
ARM GAS  C:\Users\86184\AppData\Local\Temp\ccGaz80f.s 			page 11


 546:Drivers/STM32F1xx_HAL_Driver/Src/stm32f1xx_hal_flash.c ****           /*Program halfword (16-bit) at a specified address.*/
 547:Drivers/STM32F1xx_HAL_Driver/Src/stm32f1xx_hal_flash.c ****           FLASH_Program_HalfWord(addresstmp, (uint16_t)pFlash.Data);
 548:Drivers/STM32F1xx_HAL_Driver/Src/stm32f1xx_hal_flash.c ****         }
 549:Drivers/STM32F1xx_HAL_Driver/Src/stm32f1xx_hal_flash.c ****         else
 550:Drivers/STM32F1xx_HAL_Driver/Src/stm32f1xx_hal_flash.c ****         {
 551:Drivers/STM32F1xx_HAL_Driver/Src/stm32f1xx_hal_flash.c ****           /*Program ended. Return the selected address*/
 552:Drivers/STM32F1xx_HAL_Driver/Src/stm32f1xx_hal_flash.c ****           /* FLASH EOP interrupt user callback */
 553:Drivers/STM32F1xx_HAL_Driver/Src/stm32f1xx_hal_flash.c ****           if (pFlash.ProcedureOnGoing == FLASH_PROC_PROGRAMHALFWORD)
 554:Drivers/STM32F1xx_HAL_Driver/Src/stm32f1xx_hal_flash.c ****           {
 555:Drivers/STM32F1xx_HAL_Driver/Src/stm32f1xx_hal_flash.c ****             HAL_FLASH_EndOfOperationCallback(pFlash.Address);
 556:Drivers/STM32F1xx_HAL_Driver/Src/stm32f1xx_hal_flash.c ****           }
 557:Drivers/STM32F1xx_HAL_Driver/Src/stm32f1xx_hal_flash.c ****           else if (pFlash.ProcedureOnGoing == FLASH_PROC_PROGRAMWORD)
 558:Drivers/STM32F1xx_HAL_Driver/Src/stm32f1xx_hal_flash.c ****           {
 559:Drivers/STM32F1xx_HAL_Driver/Src/stm32f1xx_hal_flash.c ****             HAL_FLASH_EndOfOperationCallback(pFlash.Address-2U);
 560:Drivers/STM32F1xx_HAL_Driver/Src/stm32f1xx_hal_flash.c ****           }
 561:Drivers/STM32F1xx_HAL_Driver/Src/stm32f1xx_hal_flash.c ****           else 
 562:Drivers/STM32F1xx_HAL_Driver/Src/stm32f1xx_hal_flash.c ****           {
 563:Drivers/STM32F1xx_HAL_Driver/Src/stm32f1xx_hal_flash.c ****             HAL_FLASH_EndOfOperationCallback(pFlash.Address-6U);
 564:Drivers/STM32F1xx_HAL_Driver/Src/stm32f1xx_hal_flash.c ****           }
 565:Drivers/STM32F1xx_HAL_Driver/Src/stm32f1xx_hal_flash.c ****           
 566:Drivers/STM32F1xx_HAL_Driver/Src/stm32f1xx_hal_flash.c ****           /* Reset Address and stop Program procedure*/
 567:Drivers/STM32F1xx_HAL_Driver/Src/stm32f1xx_hal_flash.c ****           pFlash.Address = 0xFFFFFFFFU;
 568:Drivers/STM32F1xx_HAL_Driver/Src/stm32f1xx_hal_flash.c ****           pFlash.ProcedureOnGoing = FLASH_PROC_NONE;
 569:Drivers/STM32F1xx_HAL_Driver/Src/stm32f1xx_hal_flash.c ****         }
 570:Drivers/STM32F1xx_HAL_Driver/Src/stm32f1xx_hal_flash.c ****       }
 571:Drivers/STM32F1xx_HAL_Driver/Src/stm32f1xx_hal_flash.c ****     }
 572:Drivers/STM32F1xx_HAL_Driver/Src/stm32f1xx_hal_flash.c ****   }
 573:Drivers/STM32F1xx_HAL_Driver/Src/stm32f1xx_hal_flash.c **** #endif 
 574:Drivers/STM32F1xx_HAL_Driver/Src/stm32f1xx_hal_flash.c **** 
 575:Drivers/STM32F1xx_HAL_Driver/Src/stm32f1xx_hal_flash.c ****   if(pFlash.ProcedureOnGoing == FLASH_PROC_NONE)
 576:Drivers/STM32F1xx_HAL_Driver/Src/stm32f1xx_hal_flash.c ****   {
 577:Drivers/STM32F1xx_HAL_Driver/Src/stm32f1xx_hal_flash.c **** #if defined(FLASH_BANK2_END)
 578:Drivers/STM32F1xx_HAL_Driver/Src/stm32f1xx_hal_flash.c ****     /* Operation is completed, disable the PG, PER and MER Bits for both bank */
 579:Drivers/STM32F1xx_HAL_Driver/Src/stm32f1xx_hal_flash.c ****     CLEAR_BIT(FLASH->CR, (FLASH_CR_PG | FLASH_CR_PER | FLASH_CR_MER));
 580:Drivers/STM32F1xx_HAL_Driver/Src/stm32f1xx_hal_flash.c ****     CLEAR_BIT(FLASH->CR2, (FLASH_CR2_PG | FLASH_CR2_PER | FLASH_CR2_MER));  
 581:Drivers/STM32F1xx_HAL_Driver/Src/stm32f1xx_hal_flash.c ****   
 582:Drivers/STM32F1xx_HAL_Driver/Src/stm32f1xx_hal_flash.c ****     /* Disable End of FLASH Operation and Error source interrupts for both banks */
 583:Drivers/STM32F1xx_HAL_Driver/Src/stm32f1xx_hal_flash.c ****     __HAL_FLASH_DISABLE_IT(FLASH_IT_EOP_BANK1 | FLASH_IT_ERR_BANK1 | FLASH_IT_EOP_BANK2 | FLASH_IT_
 584:Drivers/STM32F1xx_HAL_Driver/Src/stm32f1xx_hal_flash.c **** #else
 585:Drivers/STM32F1xx_HAL_Driver/Src/stm32f1xx_hal_flash.c ****     /* Operation is completed, disable the PG, PER and MER Bits */
 586:Drivers/STM32F1xx_HAL_Driver/Src/stm32f1xx_hal_flash.c ****     CLEAR_BIT(FLASH->CR, (FLASH_CR_PG | FLASH_CR_PER | FLASH_CR_MER));
 587:Drivers/STM32F1xx_HAL_Driver/Src/stm32f1xx_hal_flash.c **** 
 588:Drivers/STM32F1xx_HAL_Driver/Src/stm32f1xx_hal_flash.c ****     /* Disable End of FLASH Operation and Error source interrupts */
 589:Drivers/STM32F1xx_HAL_Driver/Src/stm32f1xx_hal_flash.c ****     __HAL_FLASH_DISABLE_IT(FLASH_IT_EOP | FLASH_IT_ERR);
 590:Drivers/STM32F1xx_HAL_Driver/Src/stm32f1xx_hal_flash.c **** #endif /* FLASH_BANK2_END */
 591:Drivers/STM32F1xx_HAL_Driver/Src/stm32f1xx_hal_flash.c **** 
 592:Drivers/STM32F1xx_HAL_Driver/Src/stm32f1xx_hal_flash.c ****     /* Process Unlocked */
 593:Drivers/STM32F1xx_HAL_Driver/Src/stm32f1xx_hal_flash.c ****     __HAL_UNLOCK(&pFlash);
 594:Drivers/STM32F1xx_HAL_Driver/Src/stm32f1xx_hal_flash.c ****   }
 595:Drivers/STM32F1xx_HAL_Driver/Src/stm32f1xx_hal_flash.c **** }
 596:Drivers/STM32F1xx_HAL_Driver/Src/stm32f1xx_hal_flash.c **** 
 597:Drivers/STM32F1xx_HAL_Driver/Src/stm32f1xx_hal_flash.c **** /**
 598:Drivers/STM32F1xx_HAL_Driver/Src/stm32f1xx_hal_flash.c ****   * @brief  FLASH end of operation interrupt callback
 599:Drivers/STM32F1xx_HAL_Driver/Src/stm32f1xx_hal_flash.c ****   * @param  ReturnValue: The value saved in this parameter depends on the ongoing procedure
 600:Drivers/STM32F1xx_HAL_Driver/Src/stm32f1xx_hal_flash.c ****   *                 - Mass Erase: No return value expected
 601:Drivers/STM32F1xx_HAL_Driver/Src/stm32f1xx_hal_flash.c ****   *                 - Pages Erase: Address of the page which has been erased 
 602:Drivers/STM32F1xx_HAL_Driver/Src/stm32f1xx_hal_flash.c ****   *                    (if 0xFFFFFFFF, it means that all the selected pages have been erased)
ARM GAS  C:\Users\86184\AppData\Local\Temp\ccGaz80f.s 			page 12


 603:Drivers/STM32F1xx_HAL_Driver/Src/stm32f1xx_hal_flash.c ****   *                 - Program: Address which was selected for data program
 604:Drivers/STM32F1xx_HAL_Driver/Src/stm32f1xx_hal_flash.c ****   * @retval none
 605:Drivers/STM32F1xx_HAL_Driver/Src/stm32f1xx_hal_flash.c ****   */
 606:Drivers/STM32F1xx_HAL_Driver/Src/stm32f1xx_hal_flash.c **** __weak void HAL_FLASH_EndOfOperationCallback(uint32_t ReturnValue)
 607:Drivers/STM32F1xx_HAL_Driver/Src/stm32f1xx_hal_flash.c **** {
 608:Drivers/STM32F1xx_HAL_Driver/Src/stm32f1xx_hal_flash.c ****   /* Prevent unused argument(s) compilation warning */
 609:Drivers/STM32F1xx_HAL_Driver/Src/stm32f1xx_hal_flash.c ****   UNUSED(ReturnValue);
 610:Drivers/STM32F1xx_HAL_Driver/Src/stm32f1xx_hal_flash.c **** 
 611:Drivers/STM32F1xx_HAL_Driver/Src/stm32f1xx_hal_flash.c ****   /* NOTE : This function Should not be modified, when the callback is needed,
 612:Drivers/STM32F1xx_HAL_Driver/Src/stm32f1xx_hal_flash.c ****             the HAL_FLASH_EndOfOperationCallback could be implemented in the user file
 613:Drivers/STM32F1xx_HAL_Driver/Src/stm32f1xx_hal_flash.c ****    */ 
 614:Drivers/STM32F1xx_HAL_Driver/Src/stm32f1xx_hal_flash.c **** }
 615:Drivers/STM32F1xx_HAL_Driver/Src/stm32f1xx_hal_flash.c **** 
 616:Drivers/STM32F1xx_HAL_Driver/Src/stm32f1xx_hal_flash.c **** /**
 617:Drivers/STM32F1xx_HAL_Driver/Src/stm32f1xx_hal_flash.c ****   * @brief  FLASH operation error interrupt callback
 618:Drivers/STM32F1xx_HAL_Driver/Src/stm32f1xx_hal_flash.c ****   * @param  ReturnValue: The value saved in this parameter depends on the ongoing procedure
 619:Drivers/STM32F1xx_HAL_Driver/Src/stm32f1xx_hal_flash.c ****   *                 - Mass Erase: No return value expected
 620:Drivers/STM32F1xx_HAL_Driver/Src/stm32f1xx_hal_flash.c ****   *                 - Pages Erase: Address of the page which returned an error
 621:Drivers/STM32F1xx_HAL_Driver/Src/stm32f1xx_hal_flash.c ****   *                 - Program: Address which was selected for data program
 622:Drivers/STM32F1xx_HAL_Driver/Src/stm32f1xx_hal_flash.c ****   * @retval none
 623:Drivers/STM32F1xx_HAL_Driver/Src/stm32f1xx_hal_flash.c ****   */
 624:Drivers/STM32F1xx_HAL_Driver/Src/stm32f1xx_hal_flash.c **** __weak void HAL_FLASH_OperationErrorCallback(uint32_t ReturnValue)
 625:Drivers/STM32F1xx_HAL_Driver/Src/stm32f1xx_hal_flash.c **** {
 626:Drivers/STM32F1xx_HAL_Driver/Src/stm32f1xx_hal_flash.c ****   /* Prevent unused argument(s) compilation warning */
 627:Drivers/STM32F1xx_HAL_Driver/Src/stm32f1xx_hal_flash.c ****   UNUSED(ReturnValue);
 628:Drivers/STM32F1xx_HAL_Driver/Src/stm32f1xx_hal_flash.c **** 
 629:Drivers/STM32F1xx_HAL_Driver/Src/stm32f1xx_hal_flash.c ****   /* NOTE : This function Should not be modified, when the callback is needed,
 630:Drivers/STM32F1xx_HAL_Driver/Src/stm32f1xx_hal_flash.c ****             the HAL_FLASH_OperationErrorCallback could be implemented in the user file
 631:Drivers/STM32F1xx_HAL_Driver/Src/stm32f1xx_hal_flash.c ****    */ 
 632:Drivers/STM32F1xx_HAL_Driver/Src/stm32f1xx_hal_flash.c **** }
 633:Drivers/STM32F1xx_HAL_Driver/Src/stm32f1xx_hal_flash.c **** 
 634:Drivers/STM32F1xx_HAL_Driver/Src/stm32f1xx_hal_flash.c **** /**
 635:Drivers/STM32F1xx_HAL_Driver/Src/stm32f1xx_hal_flash.c ****   * @}
 636:Drivers/STM32F1xx_HAL_Driver/Src/stm32f1xx_hal_flash.c ****   */
 637:Drivers/STM32F1xx_HAL_Driver/Src/stm32f1xx_hal_flash.c **** 
 638:Drivers/STM32F1xx_HAL_Driver/Src/stm32f1xx_hal_flash.c **** /** @defgroup FLASH_Exported_Functions_Group2 Peripheral Control functions 
 639:Drivers/STM32F1xx_HAL_Driver/Src/stm32f1xx_hal_flash.c ****  *  @brief   management functions 
 640:Drivers/STM32F1xx_HAL_Driver/Src/stm32f1xx_hal_flash.c ****  *
 641:Drivers/STM32F1xx_HAL_Driver/Src/stm32f1xx_hal_flash.c **** @verbatim   
 642:Drivers/STM32F1xx_HAL_Driver/Src/stm32f1xx_hal_flash.c ****  ===============================================================================
 643:Drivers/STM32F1xx_HAL_Driver/Src/stm32f1xx_hal_flash.c ****                       ##### Peripheral Control functions #####
 644:Drivers/STM32F1xx_HAL_Driver/Src/stm32f1xx_hal_flash.c ****  ===============================================================================  
 645:Drivers/STM32F1xx_HAL_Driver/Src/stm32f1xx_hal_flash.c ****     [..]
 646:Drivers/STM32F1xx_HAL_Driver/Src/stm32f1xx_hal_flash.c ****     This subsection provides a set of functions allowing to control the FLASH 
 647:Drivers/STM32F1xx_HAL_Driver/Src/stm32f1xx_hal_flash.c ****     memory operations.
 648:Drivers/STM32F1xx_HAL_Driver/Src/stm32f1xx_hal_flash.c **** 
 649:Drivers/STM32F1xx_HAL_Driver/Src/stm32f1xx_hal_flash.c **** @endverbatim
 650:Drivers/STM32F1xx_HAL_Driver/Src/stm32f1xx_hal_flash.c ****   * @{
 651:Drivers/STM32F1xx_HAL_Driver/Src/stm32f1xx_hal_flash.c ****   */
 652:Drivers/STM32F1xx_HAL_Driver/Src/stm32f1xx_hal_flash.c **** 
 653:Drivers/STM32F1xx_HAL_Driver/Src/stm32f1xx_hal_flash.c **** /**
 654:Drivers/STM32F1xx_HAL_Driver/Src/stm32f1xx_hal_flash.c ****   * @brief  Unlock the FLASH control register access
 655:Drivers/STM32F1xx_HAL_Driver/Src/stm32f1xx_hal_flash.c ****   * @retval HAL Status
 656:Drivers/STM32F1xx_HAL_Driver/Src/stm32f1xx_hal_flash.c ****   */
 657:Drivers/STM32F1xx_HAL_Driver/Src/stm32f1xx_hal_flash.c **** HAL_StatusTypeDef HAL_FLASH_Unlock(void)
 658:Drivers/STM32F1xx_HAL_Driver/Src/stm32f1xx_hal_flash.c **** {
 659:Drivers/STM32F1xx_HAL_Driver/Src/stm32f1xx_hal_flash.c ****   HAL_StatusTypeDef status = HAL_OK;
ARM GAS  C:\Users\86184\AppData\Local\Temp\ccGaz80f.s 			page 13


 660:Drivers/STM32F1xx_HAL_Driver/Src/stm32f1xx_hal_flash.c **** 
 661:Drivers/STM32F1xx_HAL_Driver/Src/stm32f1xx_hal_flash.c ****   if(READ_BIT(FLASH->CR, FLASH_CR_LOCK) != RESET)
 662:Drivers/STM32F1xx_HAL_Driver/Src/stm32f1xx_hal_flash.c ****   {
 663:Drivers/STM32F1xx_HAL_Driver/Src/stm32f1xx_hal_flash.c ****     /* Authorize the FLASH Registers access */
 664:Drivers/STM32F1xx_HAL_Driver/Src/stm32f1xx_hal_flash.c ****     WRITE_REG(FLASH->KEYR, FLASH_KEY1);
 665:Drivers/STM32F1xx_HAL_Driver/Src/stm32f1xx_hal_flash.c ****     WRITE_REG(FLASH->KEYR, FLASH_KEY2);
 666:Drivers/STM32F1xx_HAL_Driver/Src/stm32f1xx_hal_flash.c **** 
 667:Drivers/STM32F1xx_HAL_Driver/Src/stm32f1xx_hal_flash.c ****     /* Verify Flash is unlocked */
 668:Drivers/STM32F1xx_HAL_Driver/Src/stm32f1xx_hal_flash.c ****     if(READ_BIT(FLASH->CR, FLASH_CR_LOCK) != RESET)
 669:Drivers/STM32F1xx_HAL_Driver/Src/stm32f1xx_hal_flash.c ****     {
 670:Drivers/STM32F1xx_HAL_Driver/Src/stm32f1xx_hal_flash.c ****       status = HAL_ERROR;
 671:Drivers/STM32F1xx_HAL_Driver/Src/stm32f1xx_hal_flash.c ****     }
 672:Drivers/STM32F1xx_HAL_Driver/Src/stm32f1xx_hal_flash.c ****   }
 673:Drivers/STM32F1xx_HAL_Driver/Src/stm32f1xx_hal_flash.c **** #if defined(FLASH_BANK2_END)
 674:Drivers/STM32F1xx_HAL_Driver/Src/stm32f1xx_hal_flash.c ****   if(READ_BIT(FLASH->CR2, FLASH_CR2_LOCK) != RESET)
 675:Drivers/STM32F1xx_HAL_Driver/Src/stm32f1xx_hal_flash.c ****   {
 676:Drivers/STM32F1xx_HAL_Driver/Src/stm32f1xx_hal_flash.c ****     /* Authorize the FLASH BANK2 Registers access */
 677:Drivers/STM32F1xx_HAL_Driver/Src/stm32f1xx_hal_flash.c ****     WRITE_REG(FLASH->KEYR2, FLASH_KEY1);
 678:Drivers/STM32F1xx_HAL_Driver/Src/stm32f1xx_hal_flash.c ****     WRITE_REG(FLASH->KEYR2, FLASH_KEY2);
 679:Drivers/STM32F1xx_HAL_Driver/Src/stm32f1xx_hal_flash.c ****     
 680:Drivers/STM32F1xx_HAL_Driver/Src/stm32f1xx_hal_flash.c ****     /* Verify Flash BANK2 is unlocked */
 681:Drivers/STM32F1xx_HAL_Driver/Src/stm32f1xx_hal_flash.c ****     if(READ_BIT(FLASH->CR2, FLASH_CR2_LOCK) != RESET)
 682:Drivers/STM32F1xx_HAL_Driver/Src/stm32f1xx_hal_flash.c ****     {
 683:Drivers/STM32F1xx_HAL_Driver/Src/stm32f1xx_hal_flash.c ****       status = HAL_ERROR;
 684:Drivers/STM32F1xx_HAL_Driver/Src/stm32f1xx_hal_flash.c ****     }
 685:Drivers/STM32F1xx_HAL_Driver/Src/stm32f1xx_hal_flash.c ****   }
 686:Drivers/STM32F1xx_HAL_Driver/Src/stm32f1xx_hal_flash.c **** #endif /* FLASH_BANK2_END */
 687:Drivers/STM32F1xx_HAL_Driver/Src/stm32f1xx_hal_flash.c **** 
 688:Drivers/STM32F1xx_HAL_Driver/Src/stm32f1xx_hal_flash.c ****   return status;
 689:Drivers/STM32F1xx_HAL_Driver/Src/stm32f1xx_hal_flash.c **** }
 690:Drivers/STM32F1xx_HAL_Driver/Src/stm32f1xx_hal_flash.c **** 
 691:Drivers/STM32F1xx_HAL_Driver/Src/stm32f1xx_hal_flash.c **** /**
 692:Drivers/STM32F1xx_HAL_Driver/Src/stm32f1xx_hal_flash.c ****   * @brief  Locks the FLASH control register access
 693:Drivers/STM32F1xx_HAL_Driver/Src/stm32f1xx_hal_flash.c ****   * @retval HAL Status
 694:Drivers/STM32F1xx_HAL_Driver/Src/stm32f1xx_hal_flash.c ****   */
 695:Drivers/STM32F1xx_HAL_Driver/Src/stm32f1xx_hal_flash.c **** HAL_StatusTypeDef HAL_FLASH_Lock(void)
 696:Drivers/STM32F1xx_HAL_Driver/Src/stm32f1xx_hal_flash.c **** {
 697:Drivers/STM32F1xx_HAL_Driver/Src/stm32f1xx_hal_flash.c ****   /* Set the LOCK Bit to lock the FLASH Registers access */
 698:Drivers/STM32F1xx_HAL_Driver/Src/stm32f1xx_hal_flash.c ****   SET_BIT(FLASH->CR, FLASH_CR_LOCK);
 699:Drivers/STM32F1xx_HAL_Driver/Src/stm32f1xx_hal_flash.c ****   
 700:Drivers/STM32F1xx_HAL_Driver/Src/stm32f1xx_hal_flash.c **** #if defined(FLASH_BANK2_END)
 701:Drivers/STM32F1xx_HAL_Driver/Src/stm32f1xx_hal_flash.c ****   /* Set the LOCK Bit to lock the FLASH BANK2 Registers access */
 702:Drivers/STM32F1xx_HAL_Driver/Src/stm32f1xx_hal_flash.c ****   SET_BIT(FLASH->CR2, FLASH_CR2_LOCK);
 703:Drivers/STM32F1xx_HAL_Driver/Src/stm32f1xx_hal_flash.c **** 
 704:Drivers/STM32F1xx_HAL_Driver/Src/stm32f1xx_hal_flash.c **** #endif /* FLASH_BANK2_END */
 705:Drivers/STM32F1xx_HAL_Driver/Src/stm32f1xx_hal_flash.c ****   return HAL_OK;  
 706:Drivers/STM32F1xx_HAL_Driver/Src/stm32f1xx_hal_flash.c **** }
 707:Drivers/STM32F1xx_HAL_Driver/Src/stm32f1xx_hal_flash.c **** 
 708:Drivers/STM32F1xx_HAL_Driver/Src/stm32f1xx_hal_flash.c **** /**
 709:Drivers/STM32F1xx_HAL_Driver/Src/stm32f1xx_hal_flash.c ****   * @brief  Unlock the FLASH Option Control Registers access.
 710:Drivers/STM32F1xx_HAL_Driver/Src/stm32f1xx_hal_flash.c ****   * @retval HAL Status
 711:Drivers/STM32F1xx_HAL_Driver/Src/stm32f1xx_hal_flash.c ****   */
 712:Drivers/STM32F1xx_HAL_Driver/Src/stm32f1xx_hal_flash.c **** HAL_StatusTypeDef HAL_FLASH_OB_Unlock(void)
 713:Drivers/STM32F1xx_HAL_Driver/Src/stm32f1xx_hal_flash.c **** {
 714:Drivers/STM32F1xx_HAL_Driver/Src/stm32f1xx_hal_flash.c ****   if (HAL_IS_BIT_CLR(FLASH->CR, FLASH_CR_OPTWRE))
 715:Drivers/STM32F1xx_HAL_Driver/Src/stm32f1xx_hal_flash.c ****   {
 716:Drivers/STM32F1xx_HAL_Driver/Src/stm32f1xx_hal_flash.c ****     /* Authorizes the Option Byte register programming */
ARM GAS  C:\Users\86184\AppData\Local\Temp\ccGaz80f.s 			page 14


 717:Drivers/STM32F1xx_HAL_Driver/Src/stm32f1xx_hal_flash.c ****     WRITE_REG(FLASH->OPTKEYR, FLASH_OPTKEY1);
 718:Drivers/STM32F1xx_HAL_Driver/Src/stm32f1xx_hal_flash.c ****     WRITE_REG(FLASH->OPTKEYR, FLASH_OPTKEY2);
 719:Drivers/STM32F1xx_HAL_Driver/Src/stm32f1xx_hal_flash.c ****   }
 720:Drivers/STM32F1xx_HAL_Driver/Src/stm32f1xx_hal_flash.c ****   else
 721:Drivers/STM32F1xx_HAL_Driver/Src/stm32f1xx_hal_flash.c ****   {
 722:Drivers/STM32F1xx_HAL_Driver/Src/stm32f1xx_hal_flash.c ****     return HAL_ERROR;
 723:Drivers/STM32F1xx_HAL_Driver/Src/stm32f1xx_hal_flash.c ****   }  
 724:Drivers/STM32F1xx_HAL_Driver/Src/stm32f1xx_hal_flash.c ****   
 725:Drivers/STM32F1xx_HAL_Driver/Src/stm32f1xx_hal_flash.c ****   return HAL_OK;  
 726:Drivers/STM32F1xx_HAL_Driver/Src/stm32f1xx_hal_flash.c **** }
 727:Drivers/STM32F1xx_HAL_Driver/Src/stm32f1xx_hal_flash.c **** 
 728:Drivers/STM32F1xx_HAL_Driver/Src/stm32f1xx_hal_flash.c **** /**
 729:Drivers/STM32F1xx_HAL_Driver/Src/stm32f1xx_hal_flash.c ****   * @brief  Lock the FLASH Option Control Registers access.
 730:Drivers/STM32F1xx_HAL_Driver/Src/stm32f1xx_hal_flash.c ****   * @retval HAL Status 
 731:Drivers/STM32F1xx_HAL_Driver/Src/stm32f1xx_hal_flash.c ****   */
 732:Drivers/STM32F1xx_HAL_Driver/Src/stm32f1xx_hal_flash.c **** HAL_StatusTypeDef HAL_FLASH_OB_Lock(void)
 733:Drivers/STM32F1xx_HAL_Driver/Src/stm32f1xx_hal_flash.c **** {
 734:Drivers/STM32F1xx_HAL_Driver/Src/stm32f1xx_hal_flash.c ****   /* Clear the OPTWRE Bit to lock the FLASH Option Byte Registers access */
 735:Drivers/STM32F1xx_HAL_Driver/Src/stm32f1xx_hal_flash.c ****   CLEAR_BIT(FLASH->CR, FLASH_CR_OPTWRE);
 736:Drivers/STM32F1xx_HAL_Driver/Src/stm32f1xx_hal_flash.c ****   
 737:Drivers/STM32F1xx_HAL_Driver/Src/stm32f1xx_hal_flash.c ****   return HAL_OK;  
 738:Drivers/STM32F1xx_HAL_Driver/Src/stm32f1xx_hal_flash.c **** }
 739:Drivers/STM32F1xx_HAL_Driver/Src/stm32f1xx_hal_flash.c ****   
 740:Drivers/STM32F1xx_HAL_Driver/Src/stm32f1xx_hal_flash.c **** /**
 741:Drivers/STM32F1xx_HAL_Driver/Src/stm32f1xx_hal_flash.c ****   * @brief  Launch the option byte loading.
 742:Drivers/STM32F1xx_HAL_Driver/Src/stm32f1xx_hal_flash.c ****   * @note   This function will reset automatically the MCU.
 743:Drivers/STM32F1xx_HAL_Driver/Src/stm32f1xx_hal_flash.c ****   * @retval None
 744:Drivers/STM32F1xx_HAL_Driver/Src/stm32f1xx_hal_flash.c ****   */
 745:Drivers/STM32F1xx_HAL_Driver/Src/stm32f1xx_hal_flash.c **** void HAL_FLASH_OB_Launch(void)
 746:Drivers/STM32F1xx_HAL_Driver/Src/stm32f1xx_hal_flash.c **** {
 747:Drivers/STM32F1xx_HAL_Driver/Src/stm32f1xx_hal_flash.c ****   /* Initiates a system reset request to launch the option byte loading */
 748:Drivers/STM32F1xx_HAL_Driver/Src/stm32f1xx_hal_flash.c ****   HAL_NVIC_SystemReset();
 749:Drivers/STM32F1xx_HAL_Driver/Src/stm32f1xx_hal_flash.c **** }
 750:Drivers/STM32F1xx_HAL_Driver/Src/stm32f1xx_hal_flash.c **** 
 751:Drivers/STM32F1xx_HAL_Driver/Src/stm32f1xx_hal_flash.c **** /**
 752:Drivers/STM32F1xx_HAL_Driver/Src/stm32f1xx_hal_flash.c ****   * @}
 753:Drivers/STM32F1xx_HAL_Driver/Src/stm32f1xx_hal_flash.c ****   */  
 754:Drivers/STM32F1xx_HAL_Driver/Src/stm32f1xx_hal_flash.c **** 
 755:Drivers/STM32F1xx_HAL_Driver/Src/stm32f1xx_hal_flash.c **** /** @defgroup FLASH_Exported_Functions_Group3 Peripheral errors functions 
 756:Drivers/STM32F1xx_HAL_Driver/Src/stm32f1xx_hal_flash.c ****  *  @brief    Peripheral errors functions 
 757:Drivers/STM32F1xx_HAL_Driver/Src/stm32f1xx_hal_flash.c ****  *
 758:Drivers/STM32F1xx_HAL_Driver/Src/stm32f1xx_hal_flash.c **** @verbatim   
 759:Drivers/STM32F1xx_HAL_Driver/Src/stm32f1xx_hal_flash.c ****  ===============================================================================
 760:Drivers/STM32F1xx_HAL_Driver/Src/stm32f1xx_hal_flash.c ****                       ##### Peripheral Errors functions #####
 761:Drivers/STM32F1xx_HAL_Driver/Src/stm32f1xx_hal_flash.c ****  ===============================================================================  
 762:Drivers/STM32F1xx_HAL_Driver/Src/stm32f1xx_hal_flash.c ****     [..]
 763:Drivers/STM32F1xx_HAL_Driver/Src/stm32f1xx_hal_flash.c ****     This subsection permit to get in run-time errors of  the FLASH peripheral.
 764:Drivers/STM32F1xx_HAL_Driver/Src/stm32f1xx_hal_flash.c **** 
 765:Drivers/STM32F1xx_HAL_Driver/Src/stm32f1xx_hal_flash.c **** @endverbatim
 766:Drivers/STM32F1xx_HAL_Driver/Src/stm32f1xx_hal_flash.c ****   * @{
 767:Drivers/STM32F1xx_HAL_Driver/Src/stm32f1xx_hal_flash.c ****   */
 768:Drivers/STM32F1xx_HAL_Driver/Src/stm32f1xx_hal_flash.c **** 
 769:Drivers/STM32F1xx_HAL_Driver/Src/stm32f1xx_hal_flash.c **** /**
 770:Drivers/STM32F1xx_HAL_Driver/Src/stm32f1xx_hal_flash.c ****   * @brief  Get the specific FLASH error flag.
 771:Drivers/STM32F1xx_HAL_Driver/Src/stm32f1xx_hal_flash.c ****   * @retval FLASH_ErrorCode The returned value can be:
 772:Drivers/STM32F1xx_HAL_Driver/Src/stm32f1xx_hal_flash.c ****   *            @ref FLASH_Error_Codes
 773:Drivers/STM32F1xx_HAL_Driver/Src/stm32f1xx_hal_flash.c ****   */
ARM GAS  C:\Users\86184\AppData\Local\Temp\ccGaz80f.s 			page 15


 774:Drivers/STM32F1xx_HAL_Driver/Src/stm32f1xx_hal_flash.c **** uint32_t HAL_FLASH_GetError(void)
 775:Drivers/STM32F1xx_HAL_Driver/Src/stm32f1xx_hal_flash.c **** {
 776:Drivers/STM32F1xx_HAL_Driver/Src/stm32f1xx_hal_flash.c ****    return pFlash.ErrorCode;
 777:Drivers/STM32F1xx_HAL_Driver/Src/stm32f1xx_hal_flash.c **** }
 778:Drivers/STM32F1xx_HAL_Driver/Src/stm32f1xx_hal_flash.c **** 
 779:Drivers/STM32F1xx_HAL_Driver/Src/stm32f1xx_hal_flash.c **** /**
 780:Drivers/STM32F1xx_HAL_Driver/Src/stm32f1xx_hal_flash.c ****   * @}
 781:Drivers/STM32F1xx_HAL_Driver/Src/stm32f1xx_hal_flash.c ****   */
 782:Drivers/STM32F1xx_HAL_Driver/Src/stm32f1xx_hal_flash.c **** 
 783:Drivers/STM32F1xx_HAL_Driver/Src/stm32f1xx_hal_flash.c **** /**
 784:Drivers/STM32F1xx_HAL_Driver/Src/stm32f1xx_hal_flash.c ****   * @}
 785:Drivers/STM32F1xx_HAL_Driver/Src/stm32f1xx_hal_flash.c ****   */
 786:Drivers/STM32F1xx_HAL_Driver/Src/stm32f1xx_hal_flash.c **** 
 787:Drivers/STM32F1xx_HAL_Driver/Src/stm32f1xx_hal_flash.c **** /** @addtogroup FLASH_Private_Functions
 788:Drivers/STM32F1xx_HAL_Driver/Src/stm32f1xx_hal_flash.c ****  * @{
 789:Drivers/STM32F1xx_HAL_Driver/Src/stm32f1xx_hal_flash.c ****  */
 790:Drivers/STM32F1xx_HAL_Driver/Src/stm32f1xx_hal_flash.c **** 
 791:Drivers/STM32F1xx_HAL_Driver/Src/stm32f1xx_hal_flash.c **** /**
 792:Drivers/STM32F1xx_HAL_Driver/Src/stm32f1xx_hal_flash.c ****   * @brief  Program a half-word (16-bit) at a specified address.
 793:Drivers/STM32F1xx_HAL_Driver/Src/stm32f1xx_hal_flash.c ****   * @param  Address specify the address to be programmed.
 794:Drivers/STM32F1xx_HAL_Driver/Src/stm32f1xx_hal_flash.c ****   * @param  Data    specify the data to be programmed.
 795:Drivers/STM32F1xx_HAL_Driver/Src/stm32f1xx_hal_flash.c ****   * @retval None
 796:Drivers/STM32F1xx_HAL_Driver/Src/stm32f1xx_hal_flash.c ****   */
 797:Drivers/STM32F1xx_HAL_Driver/Src/stm32f1xx_hal_flash.c **** static void FLASH_Program_HalfWord(uint32_t Address, uint16_t Data)
 798:Drivers/STM32F1xx_HAL_Driver/Src/stm32f1xx_hal_flash.c **** {
 799:Drivers/STM32F1xx_HAL_Driver/Src/stm32f1xx_hal_flash.c ****   /* Clean the error context */
 800:Drivers/STM32F1xx_HAL_Driver/Src/stm32f1xx_hal_flash.c ****   pFlash.ErrorCode = HAL_FLASH_ERROR_NONE;
 801:Drivers/STM32F1xx_HAL_Driver/Src/stm32f1xx_hal_flash.c ****   
 802:Drivers/STM32F1xx_HAL_Driver/Src/stm32f1xx_hal_flash.c **** #if defined(FLASH_BANK2_END)
 803:Drivers/STM32F1xx_HAL_Driver/Src/stm32f1xx_hal_flash.c ****   if(Address <= FLASH_BANK1_END)
 804:Drivers/STM32F1xx_HAL_Driver/Src/stm32f1xx_hal_flash.c ****   {
 805:Drivers/STM32F1xx_HAL_Driver/Src/stm32f1xx_hal_flash.c **** #endif /* FLASH_BANK2_END */
 806:Drivers/STM32F1xx_HAL_Driver/Src/stm32f1xx_hal_flash.c ****     /* Proceed to program the new data */
 807:Drivers/STM32F1xx_HAL_Driver/Src/stm32f1xx_hal_flash.c ****     SET_BIT(FLASH->CR, FLASH_CR_PG);
 808:Drivers/STM32F1xx_HAL_Driver/Src/stm32f1xx_hal_flash.c **** #if defined(FLASH_BANK2_END)
 809:Drivers/STM32F1xx_HAL_Driver/Src/stm32f1xx_hal_flash.c ****   }
 810:Drivers/STM32F1xx_HAL_Driver/Src/stm32f1xx_hal_flash.c ****   else
 811:Drivers/STM32F1xx_HAL_Driver/Src/stm32f1xx_hal_flash.c ****   {
 812:Drivers/STM32F1xx_HAL_Driver/Src/stm32f1xx_hal_flash.c ****     /* Proceed to program the new data */
 813:Drivers/STM32F1xx_HAL_Driver/Src/stm32f1xx_hal_flash.c ****     SET_BIT(FLASH->CR2, FLASH_CR2_PG);
 814:Drivers/STM32F1xx_HAL_Driver/Src/stm32f1xx_hal_flash.c ****   }
 815:Drivers/STM32F1xx_HAL_Driver/Src/stm32f1xx_hal_flash.c **** #endif /* FLASH_BANK2_END */
 816:Drivers/STM32F1xx_HAL_Driver/Src/stm32f1xx_hal_flash.c **** 
 817:Drivers/STM32F1xx_HAL_Driver/Src/stm32f1xx_hal_flash.c ****   /* Write data in the address */
 818:Drivers/STM32F1xx_HAL_Driver/Src/stm32f1xx_hal_flash.c ****   *(__IO uint16_t*)Address = Data;
 819:Drivers/STM32F1xx_HAL_Driver/Src/stm32f1xx_hal_flash.c **** }
 820:Drivers/STM32F1xx_HAL_Driver/Src/stm32f1xx_hal_flash.c **** 
 821:Drivers/STM32F1xx_HAL_Driver/Src/stm32f1xx_hal_flash.c **** /**
 822:Drivers/STM32F1xx_HAL_Driver/Src/stm32f1xx_hal_flash.c ****   * @brief  Wait for a FLASH operation to complete.
 823:Drivers/STM32F1xx_HAL_Driver/Src/stm32f1xx_hal_flash.c ****   * @param  Timeout  maximum flash operation timeout
 824:Drivers/STM32F1xx_HAL_Driver/Src/stm32f1xx_hal_flash.c ****   * @retval HAL Status
 825:Drivers/STM32F1xx_HAL_Driver/Src/stm32f1xx_hal_flash.c ****   */
 826:Drivers/STM32F1xx_HAL_Driver/Src/stm32f1xx_hal_flash.c **** HAL_StatusTypeDef FLASH_WaitForLastOperation(uint32_t Timeout)
 827:Drivers/STM32F1xx_HAL_Driver/Src/stm32f1xx_hal_flash.c **** {
 828:Drivers/STM32F1xx_HAL_Driver/Src/stm32f1xx_hal_flash.c ****   /* Wait for the FLASH operation to complete by polling on BUSY flag to be reset.
 829:Drivers/STM32F1xx_HAL_Driver/Src/stm32f1xx_hal_flash.c ****      Even if the FLASH operation fails, the BUSY flag will be reset and an error
 830:Drivers/STM32F1xx_HAL_Driver/Src/stm32f1xx_hal_flash.c ****      flag will be set */
ARM GAS  C:\Users\86184\AppData\Local\Temp\ccGaz80f.s 			page 16


 831:Drivers/STM32F1xx_HAL_Driver/Src/stm32f1xx_hal_flash.c ****      
 832:Drivers/STM32F1xx_HAL_Driver/Src/stm32f1xx_hal_flash.c ****   uint32_t tickstart = HAL_GetTick();
 833:Drivers/STM32F1xx_HAL_Driver/Src/stm32f1xx_hal_flash.c ****      
 834:Drivers/STM32F1xx_HAL_Driver/Src/stm32f1xx_hal_flash.c ****   while(__HAL_FLASH_GET_FLAG(FLASH_FLAG_BSY)) 
 835:Drivers/STM32F1xx_HAL_Driver/Src/stm32f1xx_hal_flash.c ****   { 
 836:Drivers/STM32F1xx_HAL_Driver/Src/stm32f1xx_hal_flash.c ****     if (Timeout != HAL_MAX_DELAY)
 837:Drivers/STM32F1xx_HAL_Driver/Src/stm32f1xx_hal_flash.c ****     {
 838:Drivers/STM32F1xx_HAL_Driver/Src/stm32f1xx_hal_flash.c ****       if((Timeout == 0U) || ((HAL_GetTick()-tickstart) > Timeout))
 839:Drivers/STM32F1xx_HAL_Driver/Src/stm32f1xx_hal_flash.c ****       {
 840:Drivers/STM32F1xx_HAL_Driver/Src/stm32f1xx_hal_flash.c ****         return HAL_TIMEOUT;
 841:Drivers/STM32F1xx_HAL_Driver/Src/stm32f1xx_hal_flash.c ****       }
 842:Drivers/STM32F1xx_HAL_Driver/Src/stm32f1xx_hal_flash.c ****     }
 843:Drivers/STM32F1xx_HAL_Driver/Src/stm32f1xx_hal_flash.c ****   }
 844:Drivers/STM32F1xx_HAL_Driver/Src/stm32f1xx_hal_flash.c ****   
 845:Drivers/STM32F1xx_HAL_Driver/Src/stm32f1xx_hal_flash.c ****   /* Check FLASH End of Operation flag  */
 846:Drivers/STM32F1xx_HAL_Driver/Src/stm32f1xx_hal_flash.c ****   if (__HAL_FLASH_GET_FLAG(FLASH_FLAG_EOP))
 847:Drivers/STM32F1xx_HAL_Driver/Src/stm32f1xx_hal_flash.c ****   {
 848:Drivers/STM32F1xx_HAL_Driver/Src/stm32f1xx_hal_flash.c ****     /* Clear FLASH End of Operation pending bit */
 849:Drivers/STM32F1xx_HAL_Driver/Src/stm32f1xx_hal_flash.c ****     __HAL_FLASH_CLEAR_FLAG(FLASH_FLAG_EOP);
 850:Drivers/STM32F1xx_HAL_Driver/Src/stm32f1xx_hal_flash.c ****   }
 851:Drivers/STM32F1xx_HAL_Driver/Src/stm32f1xx_hal_flash.c ****   
 852:Drivers/STM32F1xx_HAL_Driver/Src/stm32f1xx_hal_flash.c ****   if(__HAL_FLASH_GET_FLAG(FLASH_FLAG_WRPERR)  || 
 853:Drivers/STM32F1xx_HAL_Driver/Src/stm32f1xx_hal_flash.c ****      __HAL_FLASH_GET_FLAG(FLASH_FLAG_OPTVERR) || 
 854:Drivers/STM32F1xx_HAL_Driver/Src/stm32f1xx_hal_flash.c ****      __HAL_FLASH_GET_FLAG(FLASH_FLAG_PGERR))
 855:Drivers/STM32F1xx_HAL_Driver/Src/stm32f1xx_hal_flash.c ****   {
 856:Drivers/STM32F1xx_HAL_Driver/Src/stm32f1xx_hal_flash.c ****     /*Save the error code*/
 857:Drivers/STM32F1xx_HAL_Driver/Src/stm32f1xx_hal_flash.c ****     FLASH_SetErrorCode();
 858:Drivers/STM32F1xx_HAL_Driver/Src/stm32f1xx_hal_flash.c ****     return HAL_ERROR;
 859:Drivers/STM32F1xx_HAL_Driver/Src/stm32f1xx_hal_flash.c ****   }
 860:Drivers/STM32F1xx_HAL_Driver/Src/stm32f1xx_hal_flash.c **** 
 861:Drivers/STM32F1xx_HAL_Driver/Src/stm32f1xx_hal_flash.c ****   /* There is no error flag set */
 862:Drivers/STM32F1xx_HAL_Driver/Src/stm32f1xx_hal_flash.c ****   return HAL_OK;
 863:Drivers/STM32F1xx_HAL_Driver/Src/stm32f1xx_hal_flash.c **** }
 864:Drivers/STM32F1xx_HAL_Driver/Src/stm32f1xx_hal_flash.c **** 
 865:Drivers/STM32F1xx_HAL_Driver/Src/stm32f1xx_hal_flash.c **** #if defined(FLASH_BANK2_END)
 866:Drivers/STM32F1xx_HAL_Driver/Src/stm32f1xx_hal_flash.c **** /**
 867:Drivers/STM32F1xx_HAL_Driver/Src/stm32f1xx_hal_flash.c ****   * @brief  Wait for a FLASH BANK2 operation to complete.
 868:Drivers/STM32F1xx_HAL_Driver/Src/stm32f1xx_hal_flash.c ****   * @param  Timeout maximum flash operation timeout
 869:Drivers/STM32F1xx_HAL_Driver/Src/stm32f1xx_hal_flash.c ****   * @retval HAL_StatusTypeDef HAL Status
 870:Drivers/STM32F1xx_HAL_Driver/Src/stm32f1xx_hal_flash.c ****   */
 871:Drivers/STM32F1xx_HAL_Driver/Src/stm32f1xx_hal_flash.c **** HAL_StatusTypeDef FLASH_WaitForLastOperationBank2(uint32_t Timeout)
 872:Drivers/STM32F1xx_HAL_Driver/Src/stm32f1xx_hal_flash.c **** { 
 873:Drivers/STM32F1xx_HAL_Driver/Src/stm32f1xx_hal_flash.c ****   /* Wait for the FLASH BANK2 operation to complete by polling on BUSY flag to be reset.
 874:Drivers/STM32F1xx_HAL_Driver/Src/stm32f1xx_hal_flash.c ****      Even if the FLASH BANK2 operation fails, the BUSY flag will be reset and an error
 875:Drivers/STM32F1xx_HAL_Driver/Src/stm32f1xx_hal_flash.c ****      flag will be set */
 876:Drivers/STM32F1xx_HAL_Driver/Src/stm32f1xx_hal_flash.c ****      
 877:Drivers/STM32F1xx_HAL_Driver/Src/stm32f1xx_hal_flash.c ****   uint32_t tickstart = HAL_GetTick();
 878:Drivers/STM32F1xx_HAL_Driver/Src/stm32f1xx_hal_flash.c ****      
 879:Drivers/STM32F1xx_HAL_Driver/Src/stm32f1xx_hal_flash.c ****   while(__HAL_FLASH_GET_FLAG(FLASH_FLAG_BSY_BANK2)) 
 880:Drivers/STM32F1xx_HAL_Driver/Src/stm32f1xx_hal_flash.c ****   { 
 881:Drivers/STM32F1xx_HAL_Driver/Src/stm32f1xx_hal_flash.c ****     if (Timeout != HAL_MAX_DELAY)
 882:Drivers/STM32F1xx_HAL_Driver/Src/stm32f1xx_hal_flash.c ****     {
 883:Drivers/STM32F1xx_HAL_Driver/Src/stm32f1xx_hal_flash.c ****       if((Timeout == 0U) || ((HAL_GetTick()-tickstart) > Timeout))
 884:Drivers/STM32F1xx_HAL_Driver/Src/stm32f1xx_hal_flash.c ****       {
 885:Drivers/STM32F1xx_HAL_Driver/Src/stm32f1xx_hal_flash.c ****         return HAL_TIMEOUT;
 886:Drivers/STM32F1xx_HAL_Driver/Src/stm32f1xx_hal_flash.c ****       }
 887:Drivers/STM32F1xx_HAL_Driver/Src/stm32f1xx_hal_flash.c ****     }
ARM GAS  C:\Users\86184\AppData\Local\Temp\ccGaz80f.s 			page 17


 888:Drivers/STM32F1xx_HAL_Driver/Src/stm32f1xx_hal_flash.c ****   }
 889:Drivers/STM32F1xx_HAL_Driver/Src/stm32f1xx_hal_flash.c ****   
 890:Drivers/STM32F1xx_HAL_Driver/Src/stm32f1xx_hal_flash.c ****   /* Check FLASH End of Operation flag  */
 891:Drivers/STM32F1xx_HAL_Driver/Src/stm32f1xx_hal_flash.c ****   if (__HAL_FLASH_GET_FLAG(FLASH_FLAG_EOP_BANK2))
 892:Drivers/STM32F1xx_HAL_Driver/Src/stm32f1xx_hal_flash.c ****   {
 893:Drivers/STM32F1xx_HAL_Driver/Src/stm32f1xx_hal_flash.c ****     /* Clear FLASH End of Operation pending bit */
 894:Drivers/STM32F1xx_HAL_Driver/Src/stm32f1xx_hal_flash.c ****     __HAL_FLASH_CLEAR_FLAG(FLASH_FLAG_EOP_BANK2);
 895:Drivers/STM32F1xx_HAL_Driver/Src/stm32f1xx_hal_flash.c ****   }
 896:Drivers/STM32F1xx_HAL_Driver/Src/stm32f1xx_hal_flash.c **** 
 897:Drivers/STM32F1xx_HAL_Driver/Src/stm32f1xx_hal_flash.c ****   if(__HAL_FLASH_GET_FLAG(FLASH_FLAG_WRPERR_BANK2) || __HAL_FLASH_GET_FLAG(FLASH_FLAG_PGERR_BANK2))
 898:Drivers/STM32F1xx_HAL_Driver/Src/stm32f1xx_hal_flash.c ****   {
 899:Drivers/STM32F1xx_HAL_Driver/Src/stm32f1xx_hal_flash.c ****     /*Save the error code*/
 900:Drivers/STM32F1xx_HAL_Driver/Src/stm32f1xx_hal_flash.c ****     FLASH_SetErrorCode();
 901:Drivers/STM32F1xx_HAL_Driver/Src/stm32f1xx_hal_flash.c ****     return HAL_ERROR;
 902:Drivers/STM32F1xx_HAL_Driver/Src/stm32f1xx_hal_flash.c ****   }
 903:Drivers/STM32F1xx_HAL_Driver/Src/stm32f1xx_hal_flash.c **** 
 904:Drivers/STM32F1xx_HAL_Driver/Src/stm32f1xx_hal_flash.c ****   /* If there is an error flag set */
 905:Drivers/STM32F1xx_HAL_Driver/Src/stm32f1xx_hal_flash.c ****   return HAL_OK;
 906:Drivers/STM32F1xx_HAL_Driver/Src/stm32f1xx_hal_flash.c ****   
 907:Drivers/STM32F1xx_HAL_Driver/Src/stm32f1xx_hal_flash.c **** }
 908:Drivers/STM32F1xx_HAL_Driver/Src/stm32f1xx_hal_flash.c **** #endif /* FLASH_BANK2_END */
 909:Drivers/STM32F1xx_HAL_Driver/Src/stm32f1xx_hal_flash.c **** 
 910:Drivers/STM32F1xx_HAL_Driver/Src/stm32f1xx_hal_flash.c **** /**
 911:Drivers/STM32F1xx_HAL_Driver/Src/stm32f1xx_hal_flash.c ****   * @brief  Set the specific FLASH error flag.
 912:Drivers/STM32F1xx_HAL_Driver/Src/stm32f1xx_hal_flash.c ****   * @retval None
 913:Drivers/STM32F1xx_HAL_Driver/Src/stm32f1xx_hal_flash.c ****   */
 914:Drivers/STM32F1xx_HAL_Driver/Src/stm32f1xx_hal_flash.c **** static void FLASH_SetErrorCode(void)
 915:Drivers/STM32F1xx_HAL_Driver/Src/stm32f1xx_hal_flash.c **** {
  27              		.loc 1 915 1 view -0
  28              		.cfi_startproc
  29              		@ args = 0, pretend = 0, frame = 0
  30              		@ frame_needed = 0, uses_anonymous_args = 0
  31              		@ link register save eliminated.
 916:Drivers/STM32F1xx_HAL_Driver/Src/stm32f1xx_hal_flash.c ****   uint32_t flags = 0U;
  32              		.loc 1 916 3 view .LVU1
  33              	.LVL0:
 917:Drivers/STM32F1xx_HAL_Driver/Src/stm32f1xx_hal_flash.c ****   
 918:Drivers/STM32F1xx_HAL_Driver/Src/stm32f1xx_hal_flash.c **** #if defined(FLASH_BANK2_END)
 919:Drivers/STM32F1xx_HAL_Driver/Src/stm32f1xx_hal_flash.c ****   if(__HAL_FLASH_GET_FLAG(FLASH_FLAG_WRPERR) || __HAL_FLASH_GET_FLAG(FLASH_FLAG_WRPERR_BANK2))
 920:Drivers/STM32F1xx_HAL_Driver/Src/stm32f1xx_hal_flash.c **** #else
 921:Drivers/STM32F1xx_HAL_Driver/Src/stm32f1xx_hal_flash.c ****   if(__HAL_FLASH_GET_FLAG(FLASH_FLAG_WRPERR))
  34              		.loc 1 921 3 view .LVU2
  35              		.loc 1 921 6 is_stmt 0 view .LVU3
  36 0000 124B     		ldr	r3, .L15
  37 0002 DB68     		ldr	r3, [r3, #12]
  38              		.loc 1 921 5 view .LVU4
  39 0004 13F01003 		ands	r3, r3, #16
  40 0008 05D0     		beq	.L2
 922:Drivers/STM32F1xx_HAL_Driver/Src/stm32f1xx_hal_flash.c **** #endif /* FLASH_BANK2_END */
 923:Drivers/STM32F1xx_HAL_Driver/Src/stm32f1xx_hal_flash.c ****   {
 924:Drivers/STM32F1xx_HAL_Driver/Src/stm32f1xx_hal_flash.c ****     pFlash.ErrorCode |= HAL_FLASH_ERROR_WRP;
  41              		.loc 1 924 5 is_stmt 1 view .LVU5
 925:Drivers/STM32F1xx_HAL_Driver/Src/stm32f1xx_hal_flash.c **** #if defined(FLASH_BANK2_END)
 926:Drivers/STM32F1xx_HAL_Driver/Src/stm32f1xx_hal_flash.c ****     flags |= FLASH_FLAG_WRPERR | FLASH_FLAG_WRPERR_BANK2;
 927:Drivers/STM32F1xx_HAL_Driver/Src/stm32f1xx_hal_flash.c **** #else
 928:Drivers/STM32F1xx_HAL_Driver/Src/stm32f1xx_hal_flash.c ****     flags |= FLASH_FLAG_WRPERR;
  42              		.loc 1 928 11 is_stmt 0 view .LVU6
ARM GAS  C:\Users\86184\AppData\Local\Temp\ccGaz80f.s 			page 18


  43 000a 1023     		movs	r3, #16
 924:Drivers/STM32F1xx_HAL_Driver/Src/stm32f1xx_hal_flash.c **** #if defined(FLASH_BANK2_END)
  44              		.loc 1 924 11 view .LVU7
  45 000c 1049     		ldr	r1, .L15+4
  46 000e CA69     		ldr	r2, [r1, #28]
 924:Drivers/STM32F1xx_HAL_Driver/Src/stm32f1xx_hal_flash.c **** #if defined(FLASH_BANK2_END)
  47              		.loc 1 924 22 view .LVU8
  48 0010 42F00202 		orr	r2, r2, #2
  49 0014 CA61     		str	r2, [r1, #28]
  50              		.loc 1 928 5 is_stmt 1 view .LVU9
  51              	.LVL1:
  52              	.L2:
 929:Drivers/STM32F1xx_HAL_Driver/Src/stm32f1xx_hal_flash.c **** #endif /* FLASH_BANK2_END */
 930:Drivers/STM32F1xx_HAL_Driver/Src/stm32f1xx_hal_flash.c ****   }
 931:Drivers/STM32F1xx_HAL_Driver/Src/stm32f1xx_hal_flash.c **** #if defined(FLASH_BANK2_END)
 932:Drivers/STM32F1xx_HAL_Driver/Src/stm32f1xx_hal_flash.c ****   if(__HAL_FLASH_GET_FLAG(FLASH_FLAG_PGERR) || __HAL_FLASH_GET_FLAG(FLASH_FLAG_PGERR_BANK2))
 933:Drivers/STM32F1xx_HAL_Driver/Src/stm32f1xx_hal_flash.c **** #else
 934:Drivers/STM32F1xx_HAL_Driver/Src/stm32f1xx_hal_flash.c ****   if(__HAL_FLASH_GET_FLAG(FLASH_FLAG_PGERR))
  53              		.loc 1 934 3 view .LVU10
  54              		.loc 1 934 6 is_stmt 0 view .LVU11
  55 0016 0D4A     		ldr	r2, .L15
  56 0018 D268     		ldr	r2, [r2, #12]
  57              		.loc 1 934 5 view .LVU12
  58 001a 5007     		lsls	r0, r2, #29
  59 001c 06D5     		bpl	.L3
 935:Drivers/STM32F1xx_HAL_Driver/Src/stm32f1xx_hal_flash.c **** #endif /* FLASH_BANK2_END */
 936:Drivers/STM32F1xx_HAL_Driver/Src/stm32f1xx_hal_flash.c ****   {
 937:Drivers/STM32F1xx_HAL_Driver/Src/stm32f1xx_hal_flash.c ****     pFlash.ErrorCode |= HAL_FLASH_ERROR_PROG;
  60              		.loc 1 937 5 is_stmt 1 view .LVU13
  61              		.loc 1 937 11 is_stmt 0 view .LVU14
  62 001e 0C49     		ldr	r1, .L15+4
 938:Drivers/STM32F1xx_HAL_Driver/Src/stm32f1xx_hal_flash.c **** #if defined(FLASH_BANK2_END)
 939:Drivers/STM32F1xx_HAL_Driver/Src/stm32f1xx_hal_flash.c ****     flags |= FLASH_FLAG_PGERR | FLASH_FLAG_PGERR_BANK2;
 940:Drivers/STM32F1xx_HAL_Driver/Src/stm32f1xx_hal_flash.c **** #else
 941:Drivers/STM32F1xx_HAL_Driver/Src/stm32f1xx_hal_flash.c ****     flags |= FLASH_FLAG_PGERR;
  63              		.loc 1 941 11 view .LVU15
  64 0020 43F00403 		orr	r3, r3, #4
  65              	.LVL2:
 937:Drivers/STM32F1xx_HAL_Driver/Src/stm32f1xx_hal_flash.c **** #if defined(FLASH_BANK2_END)
  66              		.loc 1 937 11 view .LVU16
  67 0024 CA69     		ldr	r2, [r1, #28]
 937:Drivers/STM32F1xx_HAL_Driver/Src/stm32f1xx_hal_flash.c **** #if defined(FLASH_BANK2_END)
  68              		.loc 1 937 22 view .LVU17
  69 0026 42F00102 		orr	r2, r2, #1
  70 002a CA61     		str	r2, [r1, #28]
  71              		.loc 1 941 5 is_stmt 1 view .LVU18
  72              	.LVL3:
  73              	.L3:
 942:Drivers/STM32F1xx_HAL_Driver/Src/stm32f1xx_hal_flash.c **** #endif /* FLASH_BANK2_END */
 943:Drivers/STM32F1xx_HAL_Driver/Src/stm32f1xx_hal_flash.c ****   }
 944:Drivers/STM32F1xx_HAL_Driver/Src/stm32f1xx_hal_flash.c ****   if(__HAL_FLASH_GET_FLAG(FLASH_FLAG_OPTVERR))
  74              		.loc 1 944 3 view .LVU19
  75              		.loc 1 944 6 is_stmt 0 view .LVU20
  76 002c 074A     		ldr	r2, .L15
  77 002e D169     		ldr	r1, [r2, #28]
  78              		.loc 1 944 5 view .LVU21
  79 0030 C907     		lsls	r1, r1, #31
ARM GAS  C:\Users\86184\AppData\Local\Temp\ccGaz80f.s 			page 19


  80 0032 08D5     		bpl	.L4
 945:Drivers/STM32F1xx_HAL_Driver/Src/stm32f1xx_hal_flash.c ****   {
 946:Drivers/STM32F1xx_HAL_Driver/Src/stm32f1xx_hal_flash.c ****     pFlash.ErrorCode |= HAL_FLASH_ERROR_OPTV;
  81              		.loc 1 946 5 is_stmt 1 view .LVU22
  82              		.loc 1 946 11 is_stmt 0 view .LVU23
  83 0034 0648     		ldr	r0, .L15+4
  84 0036 C169     		ldr	r1, [r0, #28]
  85              		.loc 1 946 22 view .LVU24
  86 0038 41F00401 		orr	r1, r1, #4
  87 003c C161     		str	r1, [r0, #28]
 947:Drivers/STM32F1xx_HAL_Driver/Src/stm32f1xx_hal_flash.c ****   __HAL_FLASH_CLEAR_FLAG(FLASH_FLAG_OPTVERR);
  88              		.loc 1 947 3 is_stmt 1 view .LVU25
  89              		.loc 1 947 3 view .LVU26
  90              		.loc 1 947 3 view .LVU27
  91 003e D169     		ldr	r1, [r2, #28]
  92 0040 21F00101 		bic	r1, r1, #1
  93 0044 D161     		str	r1, [r2, #28]
  94              	.L4:
  95              		.loc 1 947 3 discriminator 4 view .LVU28
 948:Drivers/STM32F1xx_HAL_Driver/Src/stm32f1xx_hal_flash.c ****   }
 949:Drivers/STM32F1xx_HAL_Driver/Src/stm32f1xx_hal_flash.c **** 
 950:Drivers/STM32F1xx_HAL_Driver/Src/stm32f1xx_hal_flash.c ****   /* Clear FLASH error pending bits */
 951:Drivers/STM32F1xx_HAL_Driver/Src/stm32f1xx_hal_flash.c ****   __HAL_FLASH_CLEAR_FLAG(flags);
  96              		.loc 1 951 3 discriminator 4 view .LVU29
  97              		.loc 1 951 3 discriminator 4 view .LVU30
  98              		.loc 1 951 3 discriminator 4 view .LVU31
  99 0046 014A     		ldr	r2, .L15
 100 0048 D360     		str	r3, [r2, #12]
 101              		.loc 1 951 3 discriminator 4 view .LVU32
 952:Drivers/STM32F1xx_HAL_Driver/Src/stm32f1xx_hal_flash.c **** }  
 102              		.loc 1 952 1 is_stmt 0 discriminator 4 view .LVU33
 103 004a 7047     		bx	lr
 104              	.L16:
 105              		.align	2
 106              	.L15:
 107 004c 00200240 		.word	1073881088
 108 0050 00000000 		.word	pFlash
 109              		.cfi_endproc
 110              	.LFE78:
 112              		.section	.text.HAL_FLASH_Program_IT,"ax",%progbits
 113              		.align	1
 114              		.p2align 2,,3
 115              		.global	HAL_FLASH_Program_IT
 116              		.syntax unified
 117              		.thumb
 118              		.thumb_func
 120              	HAL_FLASH_Program_IT:
 121              	.LVL4:
 122              	.LFB66:
 268:Drivers/STM32F1xx_HAL_Driver/Src/stm32f1xx_hal_flash.c ****   HAL_StatusTypeDef status = HAL_OK;
 123              		.loc 1 268 1 is_stmt 1 view -0
 124              		.cfi_startproc
 125              		@ args = 0, pretend = 0, frame = 0
 126              		@ frame_needed = 0, uses_anonymous_args = 0
 127              		@ link register save eliminated.
 269:Drivers/STM32F1xx_HAL_Driver/Src/stm32f1xx_hal_flash.c ****   
 128              		.loc 1 269 3 view .LVU35
ARM GAS  C:\Users\86184\AppData\Local\Temp\ccGaz80f.s 			page 20


 272:Drivers/STM32F1xx_HAL_Driver/Src/stm32f1xx_hal_flash.c **** 
 129              		.loc 1 272 3 view .LVU36
 272:Drivers/STM32F1xx_HAL_Driver/Src/stm32f1xx_hal_flash.c **** 
 130              		.loc 1 272 3 view .LVU37
 268:Drivers/STM32F1xx_HAL_Driver/Src/stm32f1xx_hal_flash.c ****   HAL_StatusTypeDef status = HAL_OK;
 131              		.loc 1 268 1 is_stmt 0 view .LVU38
 132 0000 70B4     		push	{r4, r5, r6}
 133              	.LCFI0:
 134              		.cfi_def_cfa_offset 12
 135              		.cfi_offset 4, -12
 136              		.cfi_offset 5, -8
 137              		.cfi_offset 6, -4
 268:Drivers/STM32F1xx_HAL_Driver/Src/stm32f1xx_hal_flash.c ****   HAL_StatusTypeDef status = HAL_OK;
 138              		.loc 1 268 1 view .LVU39
 139 0002 1446     		mov	r4, r2
 272:Drivers/STM32F1xx_HAL_Driver/Src/stm32f1xx_hal_flash.c **** 
 140              		.loc 1 272 3 view .LVU40
 141 0004 164A     		ldr	r2, .L26
 142              	.LVL5:
 272:Drivers/STM32F1xx_HAL_Driver/Src/stm32f1xx_hal_flash.c **** 
 143              		.loc 1 272 3 view .LVU41
 144 0006 167E     		ldrb	r6, [r2, #24]	@ zero_extendqisi2
 145 0008 012E     		cmp	r6, #1
 146 000a 25D0     		beq	.L22
 147 000c 1D46     		mov	r5, r3
 272:Drivers/STM32F1xx_HAL_Driver/Src/stm32f1xx_hal_flash.c **** 
 148              		.loc 1 272 3 is_stmt 1 discriminator 2 view .LVU42
 149 000e 0123     		movs	r3, #1
 297:Drivers/STM32F1xx_HAL_Driver/Src/stm32f1xx_hal_flash.c **** #endif /* FLASH_BANK2_END */
 150              		.loc 1 297 3 is_stmt 0 discriminator 2 view .LVU43
 151 0010 144E     		ldr	r6, .L26+4
 272:Drivers/STM32F1xx_HAL_Driver/Src/stm32f1xx_hal_flash.c **** 
 152              		.loc 1 272 3 discriminator 2 view .LVU44
 153 0012 1376     		strb	r3, [r2, #24]
 272:Drivers/STM32F1xx_HAL_Driver/Src/stm32f1xx_hal_flash.c **** 
 154              		.loc 1 272 3 is_stmt 1 discriminator 2 view .LVU45
 275:Drivers/STM32F1xx_HAL_Driver/Src/stm32f1xx_hal_flash.c ****   assert_param(IS_FLASH_PROGRAM_ADDRESS(Address));
 155              		.loc 1 275 3 discriminator 2 view .LVU46
 276:Drivers/STM32F1xx_HAL_Driver/Src/stm32f1xx_hal_flash.c **** 
 156              		.loc 1 276 3 discriminator 2 view .LVU47
 297:Drivers/STM32F1xx_HAL_Driver/Src/stm32f1xx_hal_flash.c **** #endif /* FLASH_BANK2_END */
 157              		.loc 1 297 3 discriminator 2 view .LVU48
 158 0014 3369     		ldr	r3, [r6, #16]
 303:Drivers/STM32F1xx_HAL_Driver/Src/stm32f1xx_hal_flash.c ****   {
 159              		.loc 1 303 5 is_stmt 0 discriminator 2 view .LVU49
 160 0016 0128     		cmp	r0, #1
 297:Drivers/STM32F1xx_HAL_Driver/Src/stm32f1xx_hal_flash.c **** #endif /* FLASH_BANK2_END */
 161              		.loc 1 297 3 discriminator 2 view .LVU50
 162 0018 43F4A053 		orr	r3, r3, #5120
 163 001c 3361     		str	r3, [r6, #16]
 300:Drivers/STM32F1xx_HAL_Driver/Src/stm32f1xx_hal_flash.c ****   pFlash.Data = Data;
 164              		.loc 1 300 3 is_stmt 1 discriminator 2 view .LVU51
 300:Drivers/STM32F1xx_HAL_Driver/Src/stm32f1xx_hal_flash.c ****   pFlash.Data = Data;
 165              		.loc 1 300 18 is_stmt 0 discriminator 2 view .LVU52
 166 001e 9160     		str	r1, [r2, #8]
 301:Drivers/STM32F1xx_HAL_Driver/Src/stm32f1xx_hal_flash.c **** 
 167              		.loc 1 301 3 is_stmt 1 discriminator 2 view .LVU53
ARM GAS  C:\Users\86184\AppData\Local\Temp\ccGaz80f.s 			page 21


 301:Drivers/STM32F1xx_HAL_Driver/Src/stm32f1xx_hal_flash.c **** 
 168              		.loc 1 301 15 is_stmt 0 discriminator 2 view .LVU54
 169 0020 C2E90445 		strd	r4, [r2, #16]
 303:Drivers/STM32F1xx_HAL_Driver/Src/stm32f1xx_hal_flash.c ****   {
 170              		.loc 1 303 3 is_stmt 1 discriminator 2 view .LVU55
 303:Drivers/STM32F1xx_HAL_Driver/Src/stm32f1xx_hal_flash.c ****   {
 171              		.loc 1 303 5 is_stmt 0 discriminator 2 view .LVU56
 172 0024 10D0     		beq	.L24
 309:Drivers/STM32F1xx_HAL_Driver/Src/stm32f1xx_hal_flash.c ****   {
 173              		.loc 1 309 8 is_stmt 1 view .LVU57
 309:Drivers/STM32F1xx_HAL_Driver/Src/stm32f1xx_hal_flash.c ****   {
 174              		.loc 1 309 10 is_stmt 0 view .LVU58
 175 0026 0228     		cmp	r0, #2
 176 0028 12D0     		beq	.L25
 317:Drivers/STM32F1xx_HAL_Driver/Src/stm32f1xx_hal_flash.c ****     /* Program double word (64-bit : 4*16-bit) at a specified address. */
 177              		.loc 1 317 5 is_stmt 1 view .LVU59
 317:Drivers/STM32F1xx_HAL_Driver/Src/stm32f1xx_hal_flash.c ****     /* Program double word (64-bit : 4*16-bit) at a specified address. */
 178              		.loc 1 317 29 is_stmt 0 view .LVU60
 179 002a 0520     		movs	r0, #5
 180              	.LVL6:
 319:Drivers/STM32F1xx_HAL_Driver/Src/stm32f1xx_hal_flash.c ****   }
 181              		.loc 1 319 26 view .LVU61
 182 002c 0423     		movs	r3, #4
 317:Drivers/STM32F1xx_HAL_Driver/Src/stm32f1xx_hal_flash.c ****     /* Program double word (64-bit : 4*16-bit) at a specified address. */
 183              		.loc 1 317 29 view .LVU62
 184 002e 1070     		strb	r0, [r2]
 319:Drivers/STM32F1xx_HAL_Driver/Src/stm32f1xx_hal_flash.c ****   }
 185              		.loc 1 319 5 is_stmt 1 view .LVU63
 319:Drivers/STM32F1xx_HAL_Driver/Src/stm32f1xx_hal_flash.c ****   }
 186              		.loc 1 319 26 is_stmt 0 view .LVU64
 187 0030 5360     		str	r3, [r2, #4]
 188              	.L20:
 323:Drivers/STM32F1xx_HAL_Driver/Src/stm32f1xx_hal_flash.c **** 
 189              		.loc 1 323 3 is_stmt 1 view .LVU65
 190              	.LBB8:
 191              	.LBB9:
 800:Drivers/STM32F1xx_HAL_Driver/Src/stm32f1xx_hal_flash.c ****   
 192              		.loc 1 800 20 is_stmt 0 view .LVU66
 193 0032 0020     		movs	r0, #0
 807:Drivers/STM32F1xx_HAL_Driver/Src/stm32f1xx_hal_flash.c **** #if defined(FLASH_BANK2_END)
 194              		.loc 1 807 5 view .LVU67
 195 0034 0B4D     		ldr	r5, .L26+4
 800:Drivers/STM32F1xx_HAL_Driver/Src/stm32f1xx_hal_flash.c ****   
 196              		.loc 1 800 20 view .LVU68
 197 0036 D061     		str	r0, [r2, #28]
 807:Drivers/STM32F1xx_HAL_Driver/Src/stm32f1xx_hal_flash.c **** #if defined(FLASH_BANK2_END)
 198              		.loc 1 807 5 view .LVU69
 199 0038 2B69     		ldr	r3, [r5, #16]
 200              	.LBE9:
 201              	.LBE8:
 323:Drivers/STM32F1xx_HAL_Driver/Src/stm32f1xx_hal_flash.c **** 
 202              		.loc 1 323 3 view .LVU70
 203 003a A4B2     		uxth	r4, r4
 204              	.LVL7:
 205              	.LBB11:
 206              	.LBI8:
 797:Drivers/STM32F1xx_HAL_Driver/Src/stm32f1xx_hal_flash.c **** {
ARM GAS  C:\Users\86184\AppData\Local\Temp\ccGaz80f.s 			page 22


 207              		.loc 1 797 13 is_stmt 1 view .LVU71
 208              	.LBB10:
 800:Drivers/STM32F1xx_HAL_Driver/Src/stm32f1xx_hal_flash.c ****   
 209              		.loc 1 800 3 view .LVU72
 807:Drivers/STM32F1xx_HAL_Driver/Src/stm32f1xx_hal_flash.c **** #if defined(FLASH_BANK2_END)
 210              		.loc 1 807 5 view .LVU73
 211 003c 43F00103 		orr	r3, r3, #1
 212 0040 2B61     		str	r3, [r5, #16]
 818:Drivers/STM32F1xx_HAL_Driver/Src/stm32f1xx_hal_flash.c **** }
 213              		.loc 1 818 3 view .LVU74
 818:Drivers/STM32F1xx_HAL_Driver/Src/stm32f1xx_hal_flash.c **** }
 214              		.loc 1 818 28 is_stmt 0 view .LVU75
 215 0042 0C80     		strh	r4, [r1]	@ movhi
 216              	.LVL8:
 818:Drivers/STM32F1xx_HAL_Driver/Src/stm32f1xx_hal_flash.c **** }
 217              		.loc 1 818 28 view .LVU76
 218              	.LBE10:
 219              	.LBE11:
 325:Drivers/STM32F1xx_HAL_Driver/Src/stm32f1xx_hal_flash.c **** }
 220              		.loc 1 325 3 is_stmt 1 view .LVU77
 326:Drivers/STM32F1xx_HAL_Driver/Src/stm32f1xx_hal_flash.c **** 
 221              		.loc 1 326 1 is_stmt 0 view .LVU78
 222 0044 70BC     		pop	{r4, r5, r6}
 223              	.LCFI1:
 224              		.cfi_remember_state
 225              		.cfi_restore 6
 226              		.cfi_restore 5
 227              		.cfi_restore 4
 228              		.cfi_def_cfa_offset 0
 229 0046 7047     		bx	lr
 230              	.LVL9:
 231              	.L24:
 232              	.LCFI2:
 233              		.cfi_restore_state
 305:Drivers/STM32F1xx_HAL_Driver/Src/stm32f1xx_hal_flash.c ****     /* Program halfword (16-bit) at a specified address. */
 234              		.loc 1 305 5 is_stmt 1 view .LVU79
 305:Drivers/STM32F1xx_HAL_Driver/Src/stm32f1xx_hal_flash.c ****     /* Program halfword (16-bit) at a specified address. */
 235              		.loc 1 305 29 is_stmt 0 view .LVU80
 236 0048 0323     		movs	r3, #3
 237 004a 1370     		strb	r3, [r2]
 307:Drivers/STM32F1xx_HAL_Driver/Src/stm32f1xx_hal_flash.c ****   }
 238              		.loc 1 307 5 is_stmt 1 view .LVU81
 307:Drivers/STM32F1xx_HAL_Driver/Src/stm32f1xx_hal_flash.c ****   }
 239              		.loc 1 307 26 is_stmt 0 view .LVU82
 240 004c 5060     		str	r0, [r2, #4]
 241 004e F0E7     		b	.L20
 242              	.L25:
 311:Drivers/STM32F1xx_HAL_Driver/Src/stm32f1xx_hal_flash.c ****     /* Program word (32-bit : 2*16-bit) at a specified address. */
 243              		.loc 1 311 5 is_stmt 1 view .LVU83
 311:Drivers/STM32F1xx_HAL_Driver/Src/stm32f1xx_hal_flash.c ****     /* Program word (32-bit : 2*16-bit) at a specified address. */
 244              		.loc 1 311 29 is_stmt 0 view .LVU84
 245 0050 0423     		movs	r3, #4
 246 0052 1370     		strb	r3, [r2]
 313:Drivers/STM32F1xx_HAL_Driver/Src/stm32f1xx_hal_flash.c ****   }
 247              		.loc 1 313 5 is_stmt 1 view .LVU85
 313:Drivers/STM32F1xx_HAL_Driver/Src/stm32f1xx_hal_flash.c ****   }
 248              		.loc 1 313 26 is_stmt 0 view .LVU86
ARM GAS  C:\Users\86184\AppData\Local\Temp\ccGaz80f.s 			page 23


 249 0054 5060     		str	r0, [r2, #4]
 250 0056 ECE7     		b	.L20
 251              	.L22:
 272:Drivers/STM32F1xx_HAL_Driver/Src/stm32f1xx_hal_flash.c **** 
 252              		.loc 1 272 3 view .LVU87
 253 0058 0220     		movs	r0, #2
 254              	.LVL10:
 326:Drivers/STM32F1xx_HAL_Driver/Src/stm32f1xx_hal_flash.c **** 
 255              		.loc 1 326 1 view .LVU88
 256 005a 70BC     		pop	{r4, r5, r6}
 257              	.LCFI3:
 258              		.cfi_restore 6
 259              		.cfi_restore 5
 260              		.cfi_restore 4
 261              		.cfi_def_cfa_offset 0
 262 005c 7047     		bx	lr
 263              	.L27:
 264 005e 00BF     		.align	2
 265              	.L26:
 266 0060 00000000 		.word	pFlash
 267 0064 00200240 		.word	1073881088
 268              		.cfi_endproc
 269              	.LFE66:
 271              		.section	.text.HAL_FLASH_EndOfOperationCallback,"ax",%progbits
 272              		.align	1
 273              		.p2align 2,,3
 274              		.weak	HAL_FLASH_EndOfOperationCallback
 275              		.syntax unified
 276              		.thumb
 277              		.thumb_func
 279              	HAL_FLASH_EndOfOperationCallback:
 280              	.LVL11:
 281              	.LFB68:
 607:Drivers/STM32F1xx_HAL_Driver/Src/stm32f1xx_hal_flash.c ****   /* Prevent unused argument(s) compilation warning */
 282              		.loc 1 607 1 is_stmt 1 view -0
 283              		.cfi_startproc
 284              		@ args = 0, pretend = 0, frame = 0
 285              		@ frame_needed = 0, uses_anonymous_args = 0
 286              		@ link register save eliminated.
 609:Drivers/STM32F1xx_HAL_Driver/Src/stm32f1xx_hal_flash.c **** 
 287              		.loc 1 609 3 view .LVU90
 614:Drivers/STM32F1xx_HAL_Driver/Src/stm32f1xx_hal_flash.c **** 
 288              		.loc 1 614 1 is_stmt 0 view .LVU91
 289 0000 7047     		bx	lr
 290              		.cfi_endproc
 291              	.LFE68:
 293 0002 00BF     		.section	.text.HAL_FLASH_OperationErrorCallback,"ax",%progbits
 294              		.align	1
 295              		.p2align 2,,3
 296              		.weak	HAL_FLASH_OperationErrorCallback
 297              		.syntax unified
 298              		.thumb
 299              		.thumb_func
 301              	HAL_FLASH_OperationErrorCallback:
 302              	.LFB80:
 303              		.cfi_startproc
 624:Drivers/STM32F1xx_HAL_Driver/Src/stm32f1xx_hal_flash.c **** {
ARM GAS  C:\Users\86184\AppData\Local\Temp\ccGaz80f.s 			page 24


 304              		.loc 1 624 13 is_stmt 1 view -0
 305              		@ args = 0, pretend = 0, frame = 0
 306              		@ frame_needed = 0, uses_anonymous_args = 0
 307              		@ link register save eliminated.
 308 0000 7047     		bx	lr
 309              		.cfi_endproc
 310              	.LFE80:
 312 0002 00BF     		.section	.text.HAL_FLASH_IRQHandler,"ax",%progbits
 313              		.align	1
 314              		.p2align 2,,3
 315              		.global	HAL_FLASH_IRQHandler
 316              		.syntax unified
 317              		.thumb
 318              		.thumb_func
 320              	HAL_FLASH_IRQHandler:
 321              	.LFB67:
 333:Drivers/STM32F1xx_HAL_Driver/Src/stm32f1xx_hal_flash.c ****   uint32_t addresstmp = 0U;
 322              		.loc 1 333 1 view -0
 323              		.cfi_startproc
 324              		@ args = 0, pretend = 0, frame = 0
 325              		@ frame_needed = 0, uses_anonymous_args = 0
 334:Drivers/STM32F1xx_HAL_Driver/Src/stm32f1xx_hal_flash.c ****   
 326              		.loc 1 334 3 view .LVU94
 327              	.LVL12:
 341:Drivers/STM32F1xx_HAL_Driver/Src/stm32f1xx_hal_flash.c **** #endif /* FLASH_BANK2_END */
 328              		.loc 1 341 3 view .LVU95
 333:Drivers/STM32F1xx_HAL_Driver/Src/stm32f1xx_hal_flash.c ****   uint32_t addresstmp = 0U;
 329              		.loc 1 333 1 is_stmt 0 view .LVU96
 330 0000 F8B5     		push	{r3, r4, r5, r6, r7, lr}
 331              	.LCFI4:
 332              		.cfi_def_cfa_offset 24
 333              		.cfi_offset 3, -24
 334              		.cfi_offset 4, -20
 335              		.cfi_offset 5, -16
 336              		.cfi_offset 6, -12
 337              		.cfi_offset 7, -8
 338              		.cfi_offset 14, -4
 341:Drivers/STM32F1xx_HAL_Driver/Src/stm32f1xx_hal_flash.c **** #endif /* FLASH_BANK2_END */
 339              		.loc 1 341 6 view .LVU97
 340 0002 464B     		ldr	r3, .L55
 341 0004 DA68     		ldr	r2, [r3, #12]
 341:Drivers/STM32F1xx_HAL_Driver/Src/stm32f1xx_hal_flash.c **** #endif /* FLASH_BANK2_END */
 342              		.loc 1 341 5 view .LVU98
 343 0006 D106     		lsls	r1, r2, #27
 344 0008 02D4     		bmi	.L31
 341:Drivers/STM32F1xx_HAL_Driver/Src/stm32f1xx_hal_flash.c **** #endif /* FLASH_BANK2_END */
 345              		.loc 1 341 48 discriminator 1 view .LVU99
 346 000a DB68     		ldr	r3, [r3, #12]
 341:Drivers/STM32F1xx_HAL_Driver/Src/stm32f1xx_hal_flash.c **** #endif /* FLASH_BANK2_END */
 347              		.loc 1 341 46 discriminator 1 view .LVU100
 348 000c 5A07     		lsls	r2, r3, #29
 349 000e 22D5     		bpl	.L50
 350              	.L31:
 345:Drivers/STM32F1xx_HAL_Driver/Src/stm32f1xx_hal_flash.c ****     /* Reset address */
 351              		.loc 1 345 5 is_stmt 1 view .LVU101
 347:Drivers/STM32F1xx_HAL_Driver/Src/stm32f1xx_hal_flash.c ****   
 352              		.loc 1 347 20 is_stmt 0 view .LVU102
ARM GAS  C:\Users\86184\AppData\Local\Temp\ccGaz80f.s 			page 25


 353 0010 4FF0FF33 		mov	r3, #-1
 345:Drivers/STM32F1xx_HAL_Driver/Src/stm32f1xx_hal_flash.c ****     /* Reset address */
 354              		.loc 1 345 16 view .LVU103
 355 0014 424C     		ldr	r4, .L55+4
 356 0016 A568     		ldr	r5, [r4, #8]
 357              	.LVL13:
 347:Drivers/STM32F1xx_HAL_Driver/Src/stm32f1xx_hal_flash.c ****   
 358              		.loc 1 347 5 is_stmt 1 view .LVU104
 347:Drivers/STM32F1xx_HAL_Driver/Src/stm32f1xx_hal_flash.c ****   
 359              		.loc 1 347 20 is_stmt 0 view .LVU105
 360 0018 A360     		str	r3, [r4, #8]
 350:Drivers/STM32F1xx_HAL_Driver/Src/stm32f1xx_hal_flash.c ****     
 361              		.loc 1 350 5 is_stmt 1 view .LVU106
 362 001a FFF7FEFF 		bl	FLASH_SetErrorCode
 363              	.LVL14:
 353:Drivers/STM32F1xx_HAL_Driver/Src/stm32f1xx_hal_flash.c **** 
 364              		.loc 1 353 5 view .LVU107
 365 001e 2846     		mov	r0, r5
 366 0020 FFF7FEFF 		bl	HAL_FLASH_OperationErrorCallback
 367              	.LVL15:
 356:Drivers/STM32F1xx_HAL_Driver/Src/stm32f1xx_hal_flash.c ****   }
 368              		.loc 1 356 5 view .LVU108
 356:Drivers/STM32F1xx_HAL_Driver/Src/stm32f1xx_hal_flash.c ****   }
 369              		.loc 1 356 29 is_stmt 0 view .LVU109
 370 0024 0023     		movs	r3, #0
 371 0026 2370     		strb	r3, [r4]
 372              	.LVL16:
 373              	.L32:
 366:Drivers/STM32F1xx_HAL_Driver/Src/stm32f1xx_hal_flash.c ****   {
 374              		.loc 1 366 3 is_stmt 1 view .LVU110
 366:Drivers/STM32F1xx_HAL_Driver/Src/stm32f1xx_hal_flash.c ****   {
 375              		.loc 1 366 6 is_stmt 0 view .LVU111
 376 0028 3C4D     		ldr	r5, .L55
 377 002a EB68     		ldr	r3, [r5, #12]
 366:Drivers/STM32F1xx_HAL_Driver/Src/stm32f1xx_hal_flash.c ****   {
 378              		.loc 1 366 5 view .LVU112
 379 002c 9B06     		lsls	r3, r3, #26
 380 002e 03D5     		bpl	.L34
 369:Drivers/STM32F1xx_HAL_Driver/Src/stm32f1xx_hal_flash.c **** #endif /* FLASH_BANK2_END */
 381              		.loc 1 369 5 is_stmt 1 discriminator 2 view .LVU113
 369:Drivers/STM32F1xx_HAL_Driver/Src/stm32f1xx_hal_flash.c **** #endif /* FLASH_BANK2_END */
 382              		.loc 1 369 5 discriminator 2 view .LVU114
 369:Drivers/STM32F1xx_HAL_Driver/Src/stm32f1xx_hal_flash.c **** #endif /* FLASH_BANK2_END */
 383              		.loc 1 369 5 discriminator 2 view .LVU115
 384 0030 2023     		movs	r3, #32
 385 0032 EB60     		str	r3, [r5, #12]
 369:Drivers/STM32F1xx_HAL_Driver/Src/stm32f1xx_hal_flash.c **** #endif /* FLASH_BANK2_END */
 386              		.loc 1 369 5 discriminator 2 view .LVU116
 373:Drivers/STM32F1xx_HAL_Driver/Src/stm32f1xx_hal_flash.c ****     {
 387              		.loc 1 373 5 discriminator 2 view .LVU117
 373:Drivers/STM32F1xx_HAL_Driver/Src/stm32f1xx_hal_flash.c ****     {
 388              		.loc 1 373 14 is_stmt 0 discriminator 2 view .LVU118
 389 0034 2378     		ldrb	r3, [r4]	@ zero_extendqisi2
 373:Drivers/STM32F1xx_HAL_Driver/Src/stm32f1xx_hal_flash.c ****     {
 390              		.loc 1 373 7 discriminator 2 view .LVU119
 391 0036 83B9     		cbnz	r3, .L51
 392              	.L34:
ARM GAS  C:\Users\86184\AppData\Local\Temp\ccGaz80f.s 			page 26


 575:Drivers/STM32F1xx_HAL_Driver/Src/stm32f1xx_hal_flash.c ****   {
 393              		.loc 1 575 3 is_stmt 1 view .LVU120
 575:Drivers/STM32F1xx_HAL_Driver/Src/stm32f1xx_hal_flash.c ****   {
 394              		.loc 1 575 12 is_stmt 0 view .LVU121
 395 0038 2378     		ldrb	r3, [r4]	@ zero_extendqisi2
 575:Drivers/STM32F1xx_HAL_Driver/Src/stm32f1xx_hal_flash.c ****   {
 396              		.loc 1 575 5 view .LVU122
 397 003a 03F0FF01 		and	r1, r3, #255
 398 003e 4BB9     		cbnz	r3, .L30
 586:Drivers/STM32F1xx_HAL_Driver/Src/stm32f1xx_hal_flash.c **** 
 399              		.loc 1 586 5 is_stmt 1 view .LVU123
 400 0040 364B     		ldr	r3, .L55
 401 0042 1A69     		ldr	r2, [r3, #16]
 402 0044 22F00702 		bic	r2, r2, #7
 403 0048 1A61     		str	r2, [r3, #16]
 589:Drivers/STM32F1xx_HAL_Driver/Src/stm32f1xx_hal_flash.c **** #endif /* FLASH_BANK2_END */
 404              		.loc 1 589 5 view .LVU124
 405 004a 1A69     		ldr	r2, [r3, #16]
 406 004c 22F4A052 		bic	r2, r2, #5120
 407 0050 1A61     		str	r2, [r3, #16]
 593:Drivers/STM32F1xx_HAL_Driver/Src/stm32f1xx_hal_flash.c ****   }
 408              		.loc 1 593 5 view .LVU125
 593:Drivers/STM32F1xx_HAL_Driver/Src/stm32f1xx_hal_flash.c ****   }
 409              		.loc 1 593 5 view .LVU126
 410 0052 2176     		strb	r1, [r4, #24]
 593:Drivers/STM32F1xx_HAL_Driver/Src/stm32f1xx_hal_flash.c ****   }
 411              		.loc 1 593 5 view .LVU127
 412              	.L30:
 595:Drivers/STM32F1xx_HAL_Driver/Src/stm32f1xx_hal_flash.c **** 
 413              		.loc 1 595 1 is_stmt 0 view .LVU128
 414 0054 F8BD     		pop	{r3, r4, r5, r6, r7, pc}
 415              	.LVL17:
 416              	.L50:
 595:Drivers/STM32F1xx_HAL_Driver/Src/stm32f1xx_hal_flash.c **** 
 417              		.loc 1 595 1 view .LVU129
 418 0056 324C     		ldr	r4, .L55+4
 419 0058 E6E7     		b	.L32
 420              	.LVL18:
 421              	.L51:
 375:Drivers/STM32F1xx_HAL_Driver/Src/stm32f1xx_hal_flash.c ****       {
 422              		.loc 1 375 7 is_stmt 1 view .LVU130
 375:Drivers/STM32F1xx_HAL_Driver/Src/stm32f1xx_hal_flash.c ****       {
 423              		.loc 1 375 16 is_stmt 0 view .LVU131
 424 005a 2378     		ldrb	r3, [r4]	@ zero_extendqisi2
 375:Drivers/STM32F1xx_HAL_Driver/Src/stm32f1xx_hal_flash.c ****       {
 425              		.loc 1 375 9 view .LVU132
 426 005c 012B     		cmp	r3, #1
 427 005e 23D0     		beq	.L52
 406:Drivers/STM32F1xx_HAL_Driver/Src/stm32f1xx_hal_flash.c ****       {
 428              		.loc 1 406 12 is_stmt 1 view .LVU133
 406:Drivers/STM32F1xx_HAL_Driver/Src/stm32f1xx_hal_flash.c ****       {
 429              		.loc 1 406 21 is_stmt 0 view .LVU134
 430 0060 2378     		ldrb	r3, [r4]	@ zero_extendqisi2
 406:Drivers/STM32F1xx_HAL_Driver/Src/stm32f1xx_hal_flash.c ****       {
 431              		.loc 1 406 14 view .LVU135
 432 0062 022B     		cmp	r3, #2
 433 0064 4BD0     		beq	.L53
ARM GAS  C:\Users\86184\AppData\Local\Temp\ccGaz80f.s 			page 27


 429:Drivers/STM32F1xx_HAL_Driver/Src/stm32f1xx_hal_flash.c ****         
 434              		.loc 1 429 9 is_stmt 1 view .LVU136
 429:Drivers/STM32F1xx_HAL_Driver/Src/stm32f1xx_hal_flash.c ****         
 435              		.loc 1 429 15 is_stmt 0 view .LVU137
 436 0066 6368     		ldr	r3, [r4, #4]
 429:Drivers/STM32F1xx_HAL_Driver/Src/stm32f1xx_hal_flash.c ****         
 437              		.loc 1 429 29 view .LVU138
 438 0068 013B     		subs	r3, r3, #1
 439 006a 6360     		str	r3, [r4, #4]
 432:Drivers/STM32F1xx_HAL_Driver/Src/stm32f1xx_hal_flash.c ****         {
 440              		.loc 1 432 9 is_stmt 1 view .LVU139
 432:Drivers/STM32F1xx_HAL_Driver/Src/stm32f1xx_hal_flash.c ****         {
 441              		.loc 1 432 18 is_stmt 0 view .LVU140
 442 006c 6368     		ldr	r3, [r4, #4]
 432:Drivers/STM32F1xx_HAL_Driver/Src/stm32f1xx_hal_flash.c ****         {
 443              		.loc 1 432 11 view .LVU141
 444 006e 002B     		cmp	r3, #0
 445 0070 2DD0     		beq	.L39
 435:Drivers/STM32F1xx_HAL_Driver/Src/stm32f1xx_hal_flash.c ****           addresstmp = pFlash.Address;
 446              		.loc 1 435 11 is_stmt 1 view .LVU142
 447              	.LBB12:
 448              	.LBB13:
 800:Drivers/STM32F1xx_HAL_Driver/Src/stm32f1xx_hal_flash.c ****   
 449              		.loc 1 800 20 is_stmt 0 view .LVU143
 450 0072 0027     		movs	r7, #0
 451              	.LBE13:
 452              	.LBE12:
 435:Drivers/STM32F1xx_HAL_Driver/Src/stm32f1xx_hal_flash.c ****           addresstmp = pFlash.Address;
 453              		.loc 1 435 17 view .LVU144
 454 0074 A368     		ldr	r3, [r4, #8]
 435:Drivers/STM32F1xx_HAL_Driver/Src/stm32f1xx_hal_flash.c ****           addresstmp = pFlash.Address;
 455              		.loc 1 435 26 view .LVU145
 456 0076 0233     		adds	r3, r3, #2
 457 0078 A360     		str	r3, [r4, #8]
 436:Drivers/STM32F1xx_HAL_Driver/Src/stm32f1xx_hal_flash.c ****           
 458              		.loc 1 436 11 is_stmt 1 view .LVU146
 436:Drivers/STM32F1xx_HAL_Driver/Src/stm32f1xx_hal_flash.c ****           
 459              		.loc 1 436 22 is_stmt 0 view .LVU147
 460 007a A668     		ldr	r6, [r4, #8]
 461              	.LVL19:
 439:Drivers/STM32F1xx_HAL_Driver/Src/stm32f1xx_hal_flash.c ****           
 462              		.loc 1 439 11 is_stmt 1 view .LVU148
 439:Drivers/STM32F1xx_HAL_Driver/Src/stm32f1xx_hal_flash.c ****           
 463              		.loc 1 439 32 is_stmt 0 view .LVU149
 464 007c D4E90401 		ldrd	r0, [r4, #16]
 439:Drivers/STM32F1xx_HAL_Driver/Src/stm32f1xx_hal_flash.c ****           
 465              		.loc 1 439 38 view .LVU150
 466 0080 020C     		lsrs	r2, r0, #16
 467 0082 42EA0142 		orr	r2, r2, r1, lsl #16
 468 0086 0B0C     		lsrs	r3, r1, #16
 439:Drivers/STM32F1xx_HAL_Driver/Src/stm32f1xx_hal_flash.c ****           
 469              		.loc 1 439 23 view .LVU151
 470 0088 C4E90423 		strd	r2, [r4, #16]
 442:Drivers/STM32F1xx_HAL_Driver/Src/stm32f1xx_hal_flash.c **** 
 471              		.loc 1 442 11 is_stmt 1 view .LVU152
 472 008c 2B69     		ldr	r3, [r5, #16]
 473 008e 23F00103 		bic	r3, r3, #1
ARM GAS  C:\Users\86184\AppData\Local\Temp\ccGaz80f.s 			page 28


 474 0092 2B61     		str	r3, [r5, #16]
 445:Drivers/STM32F1xx_HAL_Driver/Src/stm32f1xx_hal_flash.c ****         }
 475              		.loc 1 445 11 view .LVU153
 445:Drivers/STM32F1xx_HAL_Driver/Src/stm32f1xx_hal_flash.c ****         }
 476              		.loc 1 445 62 is_stmt 0 view .LVU154
 477 0094 D4E90423 		ldrd	r2, [r4, #16]
 478              	.LBB16:
 479              	.LBB14:
 800:Drivers/STM32F1xx_HAL_Driver/Src/stm32f1xx_hal_flash.c ****   
 480              		.loc 1 800 20 view .LVU155
 481 0098 E761     		str	r7, [r4, #28]
 807:Drivers/STM32F1xx_HAL_Driver/Src/stm32f1xx_hal_flash.c **** #if defined(FLASH_BANK2_END)
 482              		.loc 1 807 5 view .LVU156
 483 009a 2B69     		ldr	r3, [r5, #16]
 484              	.LBE14:
 485              	.LBE16:
 445:Drivers/STM32F1xx_HAL_Driver/Src/stm32f1xx_hal_flash.c ****         }
 486              		.loc 1 445 11 view .LVU157
 487 009c 92B2     		uxth	r2, r2
 488              	.LVL20:
 489              	.LBB17:
 490              	.LBI12:
 797:Drivers/STM32F1xx_HAL_Driver/Src/stm32f1xx_hal_flash.c **** {
 491              		.loc 1 797 13 is_stmt 1 view .LVU158
 492              	.LBB15:
 800:Drivers/STM32F1xx_HAL_Driver/Src/stm32f1xx_hal_flash.c ****   
 493              		.loc 1 800 3 view .LVU159
 807:Drivers/STM32F1xx_HAL_Driver/Src/stm32f1xx_hal_flash.c **** #if defined(FLASH_BANK2_END)
 494              		.loc 1 807 5 view .LVU160
 495 009e 43F00103 		orr	r3, r3, #1
 496 00a2 2B61     		str	r3, [r5, #16]
 818:Drivers/STM32F1xx_HAL_Driver/Src/stm32f1xx_hal_flash.c **** }
 497              		.loc 1 818 3 view .LVU161
 818:Drivers/STM32F1xx_HAL_Driver/Src/stm32f1xx_hal_flash.c **** }
 498              		.loc 1 818 28 is_stmt 0 view .LVU162
 499 00a4 3280     		strh	r2, [r6]	@ movhi
 819:Drivers/STM32F1xx_HAL_Driver/Src/stm32f1xx_hal_flash.c **** 
 500              		.loc 1 819 1 view .LVU163
 501 00a6 C7E7     		b	.L34
 502              	.LVL21:
 503              	.L52:
 819:Drivers/STM32F1xx_HAL_Driver/Src/stm32f1xx_hal_flash.c **** 
 504              		.loc 1 819 1 view .LVU164
 505              	.LBE15:
 506              	.LBE17:
 378:Drivers/STM32F1xx_HAL_Driver/Src/stm32f1xx_hal_flash.c **** 
 507              		.loc 1 378 9 is_stmt 1 view .LVU165
 378:Drivers/STM32F1xx_HAL_Driver/Src/stm32f1xx_hal_flash.c **** 
 508              		.loc 1 378 15 is_stmt 0 view .LVU166
 509 00a8 6368     		ldr	r3, [r4, #4]
 378:Drivers/STM32F1xx_HAL_Driver/Src/stm32f1xx_hal_flash.c **** 
 510              		.loc 1 378 29 view .LVU167
 511 00aa 013B     		subs	r3, r3, #1
 512 00ac 6360     		str	r3, [r4, #4]
 381:Drivers/STM32F1xx_HAL_Driver/Src/stm32f1xx_hal_flash.c ****         {
 513              		.loc 1 381 9 is_stmt 1 view .LVU168
 381:Drivers/STM32F1xx_HAL_Driver/Src/stm32f1xx_hal_flash.c ****         {
ARM GAS  C:\Users\86184\AppData\Local\Temp\ccGaz80f.s 			page 29


 514              		.loc 1 381 18 is_stmt 0 view .LVU169
 515 00ae 6368     		ldr	r3, [r4, #4]
 381:Drivers/STM32F1xx_HAL_Driver/Src/stm32f1xx_hal_flash.c ****         {
 516              		.loc 1 381 11 view .LVU170
 517 00b0 F3B1     		cbz	r3, .L37
 383:Drivers/STM32F1xx_HAL_Driver/Src/stm32f1xx_hal_flash.c ****           /*Indicate user which sector has been erased */
 518              		.loc 1 383 11 is_stmt 1 view .LVU171
 383:Drivers/STM32F1xx_HAL_Driver/Src/stm32f1xx_hal_flash.c ****           /*Indicate user which sector has been erased */
 519              		.loc 1 383 22 is_stmt 0 view .LVU172
 520 00b2 A068     		ldr	r0, [r4, #8]
 521              	.LVL22:
 385:Drivers/STM32F1xx_HAL_Driver/Src/stm32f1xx_hal_flash.c **** 
 522              		.loc 1 385 11 is_stmt 1 view .LVU173
 523 00b4 FFF7FEFF 		bl	HAL_FLASH_EndOfOperationCallback
 524              	.LVL23:
 388:Drivers/STM32F1xx_HAL_Driver/Src/stm32f1xx_hal_flash.c ****           pFlash.Address = addresstmp;
 525              		.loc 1 388 11 view .LVU174
 388:Drivers/STM32F1xx_HAL_Driver/Src/stm32f1xx_hal_flash.c ****           pFlash.Address = addresstmp;
 526              		.loc 1 388 30 is_stmt 0 view .LVU175
 527 00b8 A068     		ldr	r0, [r4, #8]
 388:Drivers/STM32F1xx_HAL_Driver/Src/stm32f1xx_hal_flash.c ****           pFlash.Address = addresstmp;
 528              		.loc 1 388 22 view .LVU176
 529 00ba 00F50060 		add	r0, r0, #2048
 530              	.LVL24:
 389:Drivers/STM32F1xx_HAL_Driver/Src/stm32f1xx_hal_flash.c **** 
 531              		.loc 1 389 11 is_stmt 1 view .LVU177
 389:Drivers/STM32F1xx_HAL_Driver/Src/stm32f1xx_hal_flash.c **** 
 532              		.loc 1 389 26 is_stmt 0 view .LVU178
 533 00be A060     		str	r0, [r4, #8]
 392:Drivers/STM32F1xx_HAL_Driver/Src/stm32f1xx_hal_flash.c **** 
 534              		.loc 1 392 11 is_stmt 1 view .LVU179
 535 00c0 2B69     		ldr	r3, [r5, #16]
 536 00c2 23F00203 		bic	r3, r3, #2
 537 00c6 2B61     		str	r3, [r5, #16]
 394:Drivers/STM32F1xx_HAL_Driver/Src/stm32f1xx_hal_flash.c ****         }
 538              		.loc 1 394 11 view .LVU180
 539 00c8 FFF7FEFF 		bl	FLASH_PageErase
 540              	.LVL25:
 394:Drivers/STM32F1xx_HAL_Driver/Src/stm32f1xx_hal_flash.c ****         }
 541              		.loc 1 394 11 is_stmt 0 view .LVU181
 542 00cc B4E7     		b	.L34
 543              	.LVL26:
 544              	.L39:
 451:Drivers/STM32F1xx_HAL_Driver/Src/stm32f1xx_hal_flash.c ****           {
 545              		.loc 1 451 11 is_stmt 1 view .LVU182
 451:Drivers/STM32F1xx_HAL_Driver/Src/stm32f1xx_hal_flash.c ****           {
 546              		.loc 1 451 21 is_stmt 0 view .LVU183
 547 00ce 2378     		ldrb	r3, [r4]	@ zero_extendqisi2
 451:Drivers/STM32F1xx_HAL_Driver/Src/stm32f1xx_hal_flash.c ****           {
 548              		.loc 1 451 14 view .LVU184
 549 00d0 032B     		cmp	r3, #3
 550 00d2 1ED0     		beq	.L54
 455:Drivers/STM32F1xx_HAL_Driver/Src/stm32f1xx_hal_flash.c ****           {
 551              		.loc 1 455 16 is_stmt 1 view .LVU185
 457:Drivers/STM32F1xx_HAL_Driver/Src/stm32f1xx_hal_flash.c ****           }
 552              		.loc 1 457 13 view .LVU186
 461:Drivers/STM32F1xx_HAL_Driver/Src/stm32f1xx_hal_flash.c ****           }
ARM GAS  C:\Users\86184\AppData\Local\Temp\ccGaz80f.s 			page 30


 553              		.loc 1 461 13 view .LVU187
 455:Drivers/STM32F1xx_HAL_Driver/Src/stm32f1xx_hal_flash.c ****           {
 554              		.loc 1 455 26 is_stmt 0 view .LVU188
 555 00d4 2378     		ldrb	r3, [r4]	@ zero_extendqisi2
 457:Drivers/STM32F1xx_HAL_Driver/Src/stm32f1xx_hal_flash.c ****           }
 556              		.loc 1 457 52 view .LVU189
 557 00d6 A068     		ldr	r0, [r4, #8]
 455:Drivers/STM32F1xx_HAL_Driver/Src/stm32f1xx_hal_flash.c ****           {
 558              		.loc 1 455 19 view .LVU190
 559 00d8 042B     		cmp	r3, #4
 457:Drivers/STM32F1xx_HAL_Driver/Src/stm32f1xx_hal_flash.c ****           }
 560              		.loc 1 457 13 view .LVU191
 561 00da 0CBF     		ite	eq
 562 00dc 0238     		subeq	r0, r0, #2
 461:Drivers/STM32F1xx_HAL_Driver/Src/stm32f1xx_hal_flash.c ****           }
 563              		.loc 1 461 13 view .LVU192
 564 00de 0638     		subne	r0, r0, #6
 565 00e0 FFF7FEFF 		bl	HAL_FLASH_EndOfOperationCallback
 566              	.LVL27:
 567              	.L41:
 465:Drivers/STM32F1xx_HAL_Driver/Src/stm32f1xx_hal_flash.c ****           pFlash.ProcedureOnGoing = FLASH_PROC_NONE;
 568              		.loc 1 465 11 is_stmt 1 view .LVU193
 465:Drivers/STM32F1xx_HAL_Driver/Src/stm32f1xx_hal_flash.c ****           pFlash.ProcedureOnGoing = FLASH_PROC_NONE;
 569              		.loc 1 465 26 is_stmt 0 view .LVU194
 570 00e4 4FF0FF32 		mov	r2, #-1
 466:Drivers/STM32F1xx_HAL_Driver/Src/stm32f1xx_hal_flash.c ****         }
 571              		.loc 1 466 35 view .LVU195
 572 00e8 0023     		movs	r3, #0
 465:Drivers/STM32F1xx_HAL_Driver/Src/stm32f1xx_hal_flash.c ****           pFlash.ProcedureOnGoing = FLASH_PROC_NONE;
 573              		.loc 1 465 26 view .LVU196
 574 00ea A260     		str	r2, [r4, #8]
 466:Drivers/STM32F1xx_HAL_Driver/Src/stm32f1xx_hal_flash.c ****         }
 575              		.loc 1 466 11 is_stmt 1 view .LVU197
 466:Drivers/STM32F1xx_HAL_Driver/Src/stm32f1xx_hal_flash.c ****         }
 576              		.loc 1 466 35 is_stmt 0 view .LVU198
 577 00ec 2370     		strb	r3, [r4]
 578 00ee A3E7     		b	.L34
 579              	.L37:
 400:Drivers/STM32F1xx_HAL_Driver/Src/stm32f1xx_hal_flash.c ****           pFlash.ProcedureOnGoing = FLASH_PROC_NONE;
 580              		.loc 1 400 11 is_stmt 1 view .LVU199
 581              	.LVL28:
 400:Drivers/STM32F1xx_HAL_Driver/Src/stm32f1xx_hal_flash.c ****           pFlash.ProcedureOnGoing = FLASH_PROC_NONE;
 582              		.loc 1 400 26 is_stmt 0 view .LVU200
 583 00f0 4FF0FF30 		mov	r0, #-1
 584 00f4 A060     		str	r0, [r4, #8]
 401:Drivers/STM32F1xx_HAL_Driver/Src/stm32f1xx_hal_flash.c ****           /* FLASH EOP interrupt user callback */
 585              		.loc 1 401 11 is_stmt 1 view .LVU201
 401:Drivers/STM32F1xx_HAL_Driver/Src/stm32f1xx_hal_flash.c ****           /* FLASH EOP interrupt user callback */
 586              		.loc 1 401 35 is_stmt 0 view .LVU202
 587 00f6 2370     		strb	r3, [r4]
 403:Drivers/STM32F1xx_HAL_Driver/Src/stm32f1xx_hal_flash.c ****         }
 588              		.loc 1 403 11 is_stmt 1 view .LVU203
 589 00f8 FFF7FEFF 		bl	HAL_FLASH_EndOfOperationCallback
 590              	.LVL29:
 591 00fc 9CE7     		b	.L34
 592              	.LVL30:
 593              	.L53:
ARM GAS  C:\Users\86184\AppData\Local\Temp\ccGaz80f.s 			page 31


 409:Drivers/STM32F1xx_HAL_Driver/Src/stm32f1xx_hal_flash.c **** 
 594              		.loc 1 409 9 view .LVU204
 595 00fe 2B69     		ldr	r3, [r5, #16]
 418:Drivers/STM32F1xx_HAL_Driver/Src/stm32f1xx_hal_flash.c **** 
 596              		.loc 1 418 11 is_stmt 0 view .LVU205
 597 0100 0020     		movs	r0, #0
 409:Drivers/STM32F1xx_HAL_Driver/Src/stm32f1xx_hal_flash.c **** 
 598              		.loc 1 409 9 view .LVU206
 599 0102 23F00403 		bic	r3, r3, #4
 600 0106 2B61     		str	r3, [r5, #16]
 418:Drivers/STM32F1xx_HAL_Driver/Src/stm32f1xx_hal_flash.c **** 
 601              		.loc 1 418 11 is_stmt 1 view .LVU207
 602 0108 FFF7FEFF 		bl	HAL_FLASH_EndOfOperationCallback
 603              	.LVL31:
 421:Drivers/STM32F1xx_HAL_Driver/Src/stm32f1xx_hal_flash.c ****         }
 604              		.loc 1 421 11 view .LVU208
 421:Drivers/STM32F1xx_HAL_Driver/Src/stm32f1xx_hal_flash.c ****         }
 605              		.loc 1 421 35 is_stmt 0 view .LVU209
 606 010c 0023     		movs	r3, #0
 607 010e 2370     		strb	r3, [r4]
 608 0110 92E7     		b	.L34
 609              	.L54:
 453:Drivers/STM32F1xx_HAL_Driver/Src/stm32f1xx_hal_flash.c ****           }
 610              		.loc 1 453 13 is_stmt 1 view .LVU210
 453:Drivers/STM32F1xx_HAL_Driver/Src/stm32f1xx_hal_flash.c ****           }
 611              		.loc 1 453 52 is_stmt 0 view .LVU211
 612 0112 A068     		ldr	r0, [r4, #8]
 453:Drivers/STM32F1xx_HAL_Driver/Src/stm32f1xx_hal_flash.c ****           }
 613              		.loc 1 453 13 view .LVU212
 614 0114 FFF7FEFF 		bl	HAL_FLASH_EndOfOperationCallback
 615              	.LVL32:
 616 0118 E4E7     		b	.L41
 617              	.L56:
 618 011a 00BF     		.align	2
 619              	.L55:
 620 011c 00200240 		.word	1073881088
 621 0120 00000000 		.word	pFlash
 622              		.cfi_endproc
 623              	.LFE67:
 625              		.section	.text.HAL_FLASH_Unlock,"ax",%progbits
 626              		.align	1
 627              		.p2align 2,,3
 628              		.global	HAL_FLASH_Unlock
 629              		.syntax unified
 630              		.thumb
 631              		.thumb_func
 633              	HAL_FLASH_Unlock:
 634              	.LFB70:
 658:Drivers/STM32F1xx_HAL_Driver/Src/stm32f1xx_hal_flash.c ****   HAL_StatusTypeDef status = HAL_OK;
 635              		.loc 1 658 1 is_stmt 1 view -0
 636              		.cfi_startproc
 637              		@ args = 0, pretend = 0, frame = 0
 638              		@ frame_needed = 0, uses_anonymous_args = 0
 639              		@ link register save eliminated.
 659:Drivers/STM32F1xx_HAL_Driver/Src/stm32f1xx_hal_flash.c **** 
 640              		.loc 1 659 3 view .LVU214
 641              	.LVL33:
ARM GAS  C:\Users\86184\AppData\Local\Temp\ccGaz80f.s 			page 32


 661:Drivers/STM32F1xx_HAL_Driver/Src/stm32f1xx_hal_flash.c ****   {
 642              		.loc 1 661 3 view .LVU215
 661:Drivers/STM32F1xx_HAL_Driver/Src/stm32f1xx_hal_flash.c ****   {
 643              		.loc 1 661 6 is_stmt 0 view .LVU216
 644 0000 064B     		ldr	r3, .L60
 645 0002 1869     		ldr	r0, [r3, #16]
 661:Drivers/STM32F1xx_HAL_Driver/Src/stm32f1xx_hal_flash.c ****   {
 646              		.loc 1 661 5 view .LVU217
 647 0004 10F08000 		ands	r0, r0, #128
 648 0008 06D0     		beq	.L58
 664:Drivers/STM32F1xx_HAL_Driver/Src/stm32f1xx_hal_flash.c ****     WRITE_REG(FLASH->KEYR, FLASH_KEY2);
 649              		.loc 1 664 5 is_stmt 1 view .LVU218
 650 000a 0549     		ldr	r1, .L60+4
 665:Drivers/STM32F1xx_HAL_Driver/Src/stm32f1xx_hal_flash.c **** 
 651              		.loc 1 665 5 is_stmt 0 view .LVU219
 652 000c 054A     		ldr	r2, .L60+8
 664:Drivers/STM32F1xx_HAL_Driver/Src/stm32f1xx_hal_flash.c ****     WRITE_REG(FLASH->KEYR, FLASH_KEY2);
 653              		.loc 1 664 5 view .LVU220
 654 000e 5960     		str	r1, [r3, #4]
 665:Drivers/STM32F1xx_HAL_Driver/Src/stm32f1xx_hal_flash.c **** 
 655              		.loc 1 665 5 is_stmt 1 view .LVU221
 656 0010 5A60     		str	r2, [r3, #4]
 668:Drivers/STM32F1xx_HAL_Driver/Src/stm32f1xx_hal_flash.c ****     {
 657              		.loc 1 668 5 view .LVU222
 668:Drivers/STM32F1xx_HAL_Driver/Src/stm32f1xx_hal_flash.c ****     {
 658              		.loc 1 668 8 is_stmt 0 view .LVU223
 659 0012 1869     		ldr	r0, [r3, #16]
 668:Drivers/STM32F1xx_HAL_Driver/Src/stm32f1xx_hal_flash.c ****     {
 660              		.loc 1 668 7 view .LVU224
 661 0014 C0F3C010 		ubfx	r0, r0, #7, #1
 662              	.L58:
 663              	.LVL34:
 688:Drivers/STM32F1xx_HAL_Driver/Src/stm32f1xx_hal_flash.c **** }
 664              		.loc 1 688 3 is_stmt 1 view .LVU225
 689:Drivers/STM32F1xx_HAL_Driver/Src/stm32f1xx_hal_flash.c **** 
 665              		.loc 1 689 1 is_stmt 0 view .LVU226
 666 0018 7047     		bx	lr
 667              	.L61:
 668 001a 00BF     		.align	2
 669              	.L60:
 670 001c 00200240 		.word	1073881088
 671 0020 23016745 		.word	1164378403
 672 0024 AB89EFCD 		.word	-839939669
 673              		.cfi_endproc
 674              	.LFE70:
 676              		.section	.text.HAL_FLASH_Lock,"ax",%progbits
 677              		.align	1
 678              		.p2align 2,,3
 679              		.global	HAL_FLASH_Lock
 680              		.syntax unified
 681              		.thumb
 682              		.thumb_func
 684              	HAL_FLASH_Lock:
 685              	.LFB71:
 696:Drivers/STM32F1xx_HAL_Driver/Src/stm32f1xx_hal_flash.c ****   /* Set the LOCK Bit to lock the FLASH Registers access */
 686              		.loc 1 696 1 is_stmt 1 view -0
 687              		.cfi_startproc
ARM GAS  C:\Users\86184\AppData\Local\Temp\ccGaz80f.s 			page 33


 688              		@ args = 0, pretend = 0, frame = 0
 689              		@ frame_needed = 0, uses_anonymous_args = 0
 690              		@ link register save eliminated.
 698:Drivers/STM32F1xx_HAL_Driver/Src/stm32f1xx_hal_flash.c ****   
 691              		.loc 1 698 3 view .LVU228
 692 0000 034A     		ldr	r2, .L63
 706:Drivers/STM32F1xx_HAL_Driver/Src/stm32f1xx_hal_flash.c **** 
 693              		.loc 1 706 1 is_stmt 0 view .LVU229
 694 0002 0020     		movs	r0, #0
 698:Drivers/STM32F1xx_HAL_Driver/Src/stm32f1xx_hal_flash.c ****   
 695              		.loc 1 698 3 view .LVU230
 696 0004 1369     		ldr	r3, [r2, #16]
 697 0006 43F08003 		orr	r3, r3, #128
 698 000a 1361     		str	r3, [r2, #16]
 705:Drivers/STM32F1xx_HAL_Driver/Src/stm32f1xx_hal_flash.c **** }
 699              		.loc 1 705 3 is_stmt 1 view .LVU231
 706:Drivers/STM32F1xx_HAL_Driver/Src/stm32f1xx_hal_flash.c **** 
 700              		.loc 1 706 1 is_stmt 0 view .LVU232
 701 000c 7047     		bx	lr
 702              	.L64:
 703 000e 00BF     		.align	2
 704              	.L63:
 705 0010 00200240 		.word	1073881088
 706              		.cfi_endproc
 707              	.LFE71:
 709              		.section	.text.HAL_FLASH_OB_Unlock,"ax",%progbits
 710              		.align	1
 711              		.p2align 2,,3
 712              		.global	HAL_FLASH_OB_Unlock
 713              		.syntax unified
 714              		.thumb
 715              		.thumb_func
 717              	HAL_FLASH_OB_Unlock:
 718              	.LFB72:
 713:Drivers/STM32F1xx_HAL_Driver/Src/stm32f1xx_hal_flash.c ****   if (HAL_IS_BIT_CLR(FLASH->CR, FLASH_CR_OPTWRE))
 719              		.loc 1 713 1 is_stmt 1 view -0
 720              		.cfi_startproc
 721              		@ args = 0, pretend = 0, frame = 0
 722              		@ frame_needed = 0, uses_anonymous_args = 0
 723              		@ link register save eliminated.
 714:Drivers/STM32F1xx_HAL_Driver/Src/stm32f1xx_hal_flash.c ****   {
 724              		.loc 1 714 3 view .LVU234
 714:Drivers/STM32F1xx_HAL_Driver/Src/stm32f1xx_hal_flash.c ****   {
 725              		.loc 1 714 7 is_stmt 0 view .LVU235
 726 0000 054B     		ldr	r3, .L68
 727 0002 1869     		ldr	r0, [r3, #16]
 714:Drivers/STM32F1xx_HAL_Driver/Src/stm32f1xx_hal_flash.c ****   {
 728              		.loc 1 714 6 view .LVU236
 729 0004 10F40070 		ands	r0, r0, #512
 730 0008 04D1     		bne	.L67
 717:Drivers/STM32F1xx_HAL_Driver/Src/stm32f1xx_hal_flash.c ****     WRITE_REG(FLASH->OPTKEYR, FLASH_OPTKEY2);
 731              		.loc 1 717 5 is_stmt 1 view .LVU237
 732 000a 0449     		ldr	r1, .L68+4
 718:Drivers/STM32F1xx_HAL_Driver/Src/stm32f1xx_hal_flash.c ****   }
 733              		.loc 1 718 5 is_stmt 0 view .LVU238
 734 000c 044A     		ldr	r2, .L68+8
 717:Drivers/STM32F1xx_HAL_Driver/Src/stm32f1xx_hal_flash.c ****     WRITE_REG(FLASH->OPTKEYR, FLASH_OPTKEY2);
ARM GAS  C:\Users\86184\AppData\Local\Temp\ccGaz80f.s 			page 34


 735              		.loc 1 717 5 view .LVU239
 736 000e 9960     		str	r1, [r3, #8]
 718:Drivers/STM32F1xx_HAL_Driver/Src/stm32f1xx_hal_flash.c ****   }
 737              		.loc 1 718 5 is_stmt 1 view .LVU240
 738 0010 9A60     		str	r2, [r3, #8]
 725:Drivers/STM32F1xx_HAL_Driver/Src/stm32f1xx_hal_flash.c **** }
 739              		.loc 1 725 3 view .LVU241
 725:Drivers/STM32F1xx_HAL_Driver/Src/stm32f1xx_hal_flash.c **** }
 740              		.loc 1 725 10 is_stmt 0 view .LVU242
 741 0012 7047     		bx	lr
 742              	.L67:
 722:Drivers/STM32F1xx_HAL_Driver/Src/stm32f1xx_hal_flash.c ****   }  
 743              		.loc 1 722 12 view .LVU243
 744 0014 0120     		movs	r0, #1
 726:Drivers/STM32F1xx_HAL_Driver/Src/stm32f1xx_hal_flash.c **** 
 745              		.loc 1 726 1 view .LVU244
 746 0016 7047     		bx	lr
 747              	.L69:
 748              		.align	2
 749              	.L68:
 750 0018 00200240 		.word	1073881088
 751 001c 23016745 		.word	1164378403
 752 0020 AB89EFCD 		.word	-839939669
 753              		.cfi_endproc
 754              	.LFE72:
 756              		.section	.text.HAL_FLASH_OB_Lock,"ax",%progbits
 757              		.align	1
 758              		.p2align 2,,3
 759              		.global	HAL_FLASH_OB_Lock
 760              		.syntax unified
 761              		.thumb
 762              		.thumb_func
 764              	HAL_FLASH_OB_Lock:
 765              	.LFB73:
 733:Drivers/STM32F1xx_HAL_Driver/Src/stm32f1xx_hal_flash.c ****   /* Clear the OPTWRE Bit to lock the FLASH Option Byte Registers access */
 766              		.loc 1 733 1 is_stmt 1 view -0
 767              		.cfi_startproc
 768              		@ args = 0, pretend = 0, frame = 0
 769              		@ frame_needed = 0, uses_anonymous_args = 0
 770              		@ link register save eliminated.
 735:Drivers/STM32F1xx_HAL_Driver/Src/stm32f1xx_hal_flash.c ****   
 771              		.loc 1 735 3 view .LVU246
 772 0000 034A     		ldr	r2, .L71
 738:Drivers/STM32F1xx_HAL_Driver/Src/stm32f1xx_hal_flash.c ****   
 773              		.loc 1 738 1 is_stmt 0 view .LVU247
 774 0002 0020     		movs	r0, #0
 735:Drivers/STM32F1xx_HAL_Driver/Src/stm32f1xx_hal_flash.c ****   
 775              		.loc 1 735 3 view .LVU248
 776 0004 1369     		ldr	r3, [r2, #16]
 777 0006 23F40073 		bic	r3, r3, #512
 778 000a 1361     		str	r3, [r2, #16]
 737:Drivers/STM32F1xx_HAL_Driver/Src/stm32f1xx_hal_flash.c **** }
 779              		.loc 1 737 3 is_stmt 1 view .LVU249
 738:Drivers/STM32F1xx_HAL_Driver/Src/stm32f1xx_hal_flash.c ****   
 780              		.loc 1 738 1 is_stmt 0 view .LVU250
 781 000c 7047     		bx	lr
 782              	.L72:
ARM GAS  C:\Users\86184\AppData\Local\Temp\ccGaz80f.s 			page 35


 783 000e 00BF     		.align	2
 784              	.L71:
 785 0010 00200240 		.word	1073881088
 786              		.cfi_endproc
 787              	.LFE73:
 789              		.section	.text.HAL_FLASH_OB_Launch,"ax",%progbits
 790              		.align	1
 791              		.p2align 2,,3
 792              		.global	HAL_FLASH_OB_Launch
 793              		.syntax unified
 794              		.thumb
 795              		.thumb_func
 797              	HAL_FLASH_OB_Launch:
 798              	.LFB74:
 746:Drivers/STM32F1xx_HAL_Driver/Src/stm32f1xx_hal_flash.c ****   /* Initiates a system reset request to launch the option byte loading */
 799              		.loc 1 746 1 is_stmt 1 view -0
 800              		.cfi_startproc
 801              		@ args = 0, pretend = 0, frame = 0
 802              		@ frame_needed = 0, uses_anonymous_args = 0
 803              		@ link register save eliminated.
 748:Drivers/STM32F1xx_HAL_Driver/Src/stm32f1xx_hal_flash.c **** }
 804              		.loc 1 748 3 view .LVU252
 805 0000 FFF7FEBF 		b	HAL_NVIC_SystemReset
 806              	.LVL35:
 807              		.cfi_endproc
 808              	.LFE74:
 810              		.section	.text.HAL_FLASH_GetError,"ax",%progbits
 811              		.align	1
 812              		.p2align 2,,3
 813              		.global	HAL_FLASH_GetError
 814              		.syntax unified
 815              		.thumb
 816              		.thumb_func
 818              	HAL_FLASH_GetError:
 819              	.LFB75:
 775:Drivers/STM32F1xx_HAL_Driver/Src/stm32f1xx_hal_flash.c ****    return pFlash.ErrorCode;
 820              		.loc 1 775 1 view -0
 821              		.cfi_startproc
 822              		@ args = 0, pretend = 0, frame = 0
 823              		@ frame_needed = 0, uses_anonymous_args = 0
 824              		@ link register save eliminated.
 776:Drivers/STM32F1xx_HAL_Driver/Src/stm32f1xx_hal_flash.c **** }
 825              		.loc 1 776 4 view .LVU254
 776:Drivers/STM32F1xx_HAL_Driver/Src/stm32f1xx_hal_flash.c **** }
 826              		.loc 1 776 17 is_stmt 0 view .LVU255
 827 0000 014B     		ldr	r3, .L75
 828 0002 D869     		ldr	r0, [r3, #28]
 777:Drivers/STM32F1xx_HAL_Driver/Src/stm32f1xx_hal_flash.c **** 
 829              		.loc 1 777 1 view .LVU256
 830 0004 7047     		bx	lr
 831              	.L76:
 832 0006 00BF     		.align	2
 833              	.L75:
 834 0008 00000000 		.word	pFlash
 835              		.cfi_endproc
 836              	.LFE75:
 838              		.section	.text.FLASH_WaitForLastOperation,"ax",%progbits
ARM GAS  C:\Users\86184\AppData\Local\Temp\ccGaz80f.s 			page 36


 839              		.align	1
 840              		.p2align 2,,3
 841              		.global	FLASH_WaitForLastOperation
 842              		.syntax unified
 843              		.thumb
 844              		.thumb_func
 846              	FLASH_WaitForLastOperation:
 847              	.LVL36:
 848              	.LFB77:
 827:Drivers/STM32F1xx_HAL_Driver/Src/stm32f1xx_hal_flash.c ****   /* Wait for the FLASH operation to complete by polling on BUSY flag to be reset.
 849              		.loc 1 827 1 is_stmt 1 view -0
 850              		.cfi_startproc
 851              		@ args = 0, pretend = 0, frame = 0
 852              		@ frame_needed = 0, uses_anonymous_args = 0
 832:Drivers/STM32F1xx_HAL_Driver/Src/stm32f1xx_hal_flash.c ****      
 853              		.loc 1 832 3 view .LVU258
 827:Drivers/STM32F1xx_HAL_Driver/Src/stm32f1xx_hal_flash.c ****   /* Wait for the FLASH operation to complete by polling on BUSY flag to be reset.
 854              		.loc 1 827 1 is_stmt 0 view .LVU259
 855 0000 70B5     		push	{r4, r5, r6, lr}
 856              	.LCFI5:
 857              		.cfi_def_cfa_offset 16
 858              		.cfi_offset 4, -16
 859              		.cfi_offset 5, -12
 860              		.cfi_offset 6, -8
 861              		.cfi_offset 14, -4
 827:Drivers/STM32F1xx_HAL_Driver/Src/stm32f1xx_hal_flash.c ****   /* Wait for the FLASH operation to complete by polling on BUSY flag to be reset.
 862              		.loc 1 827 1 view .LVU260
 863 0002 0446     		mov	r4, r0
 832:Drivers/STM32F1xx_HAL_Driver/Src/stm32f1xx_hal_flash.c ****      
 864              		.loc 1 832 24 view .LVU261
 865 0004 FFF7FEFF 		bl	HAL_GetTick
 866              	.LVL37:
 834:Drivers/STM32F1xx_HAL_Driver/Src/stm32f1xx_hal_flash.c ****   { 
 867              		.loc 1 834 9 view .LVU262
 868 0008 124D     		ldr	r5, .L94
 832:Drivers/STM32F1xx_HAL_Driver/Src/stm32f1xx_hal_flash.c ****      
 869              		.loc 1 832 24 view .LVU263
 870 000a 0646     		mov	r6, r0
 871              	.LVL38:
 834:Drivers/STM32F1xx_HAL_Driver/Src/stm32f1xx_hal_flash.c ****   { 
 872              		.loc 1 834 3 is_stmt 1 view .LVU264
 834:Drivers/STM32F1xx_HAL_Driver/Src/stm32f1xx_hal_flash.c ****   { 
 873              		.loc 1 834 8 is_stmt 0 view .LVU265
 874 000c 01E0     		b	.L79
 875              	.LVL39:
 876              	.L83:
 836:Drivers/STM32F1xx_HAL_Driver/Src/stm32f1xx_hal_flash.c ****     {
 877              		.loc 1 836 8 view .LVU266
 878 000e 621C     		adds	r2, r4, #1
 879 0010 17D1     		bne	.L93
 880              	.L79:
 836:Drivers/STM32F1xx_HAL_Driver/Src/stm32f1xx_hal_flash.c ****     {
 881              		.loc 1 836 5 is_stmt 1 view .LVU267
 834:Drivers/STM32F1xx_HAL_Driver/Src/stm32f1xx_hal_flash.c ****   { 
 882              		.loc 1 834 9 view .LVU268
 883 0012 EB68     		ldr	r3, [r5, #12]
 884 0014 DB07     		lsls	r3, r3, #31
ARM GAS  C:\Users\86184\AppData\Local\Temp\ccGaz80f.s 			page 37


 885 0016 FAD4     		bmi	.L83
 846:Drivers/STM32F1xx_HAL_Driver/Src/stm32f1xx_hal_flash.c ****   {
 886              		.loc 1 846 3 view .LVU269
 846:Drivers/STM32F1xx_HAL_Driver/Src/stm32f1xx_hal_flash.c ****   {
 887              		.loc 1 846 7 is_stmt 0 view .LVU270
 888 0018 EB68     		ldr	r3, [r5, #12]
 846:Drivers/STM32F1xx_HAL_Driver/Src/stm32f1xx_hal_flash.c ****   {
 889              		.loc 1 846 6 view .LVU271
 890 001a 9806     		lsls	r0, r3, #26
 849:Drivers/STM32F1xx_HAL_Driver/Src/stm32f1xx_hal_flash.c ****   }
 891              		.loc 1 849 5 is_stmt 1 view .LVU272
 849:Drivers/STM32F1xx_HAL_Driver/Src/stm32f1xx_hal_flash.c ****   }
 892              		.loc 1 849 5 view .LVU273
 849:Drivers/STM32F1xx_HAL_Driver/Src/stm32f1xx_hal_flash.c ****   }
 893              		.loc 1 849 5 view .LVU274
 849:Drivers/STM32F1xx_HAL_Driver/Src/stm32f1xx_hal_flash.c ****   }
 894              		.loc 1 849 5 view .LVU275
 852:Drivers/STM32F1xx_HAL_Driver/Src/stm32f1xx_hal_flash.c ****      __HAL_FLASH_GET_FLAG(FLASH_FLAG_OPTVERR) || 
 895              		.loc 1 852 3 view .LVU276
 849:Drivers/STM32F1xx_HAL_Driver/Src/stm32f1xx_hal_flash.c ****   }
 896              		.loc 1 849 5 is_stmt 0 view .LVU277
 897 001c 44BF     		itt	mi
 898 001e 2023     		movmi	r3, #32
 899 0020 EB60     		strmi	r3, [r5, #12]
 852:Drivers/STM32F1xx_HAL_Driver/Src/stm32f1xx_hal_flash.c ****      __HAL_FLASH_GET_FLAG(FLASH_FLAG_OPTVERR) || 
 900              		.loc 1 852 6 view .LVU278
 901 0022 0C4B     		ldr	r3, .L94
 902 0024 DA68     		ldr	r2, [r3, #12]
 852:Drivers/STM32F1xx_HAL_Driver/Src/stm32f1xx_hal_flash.c ****      __HAL_FLASH_GET_FLAG(FLASH_FLAG_OPTVERR) || 
 903              		.loc 1 852 5 view .LVU279
 904 0026 D106     		lsls	r1, r2, #27
 905 0028 07D4     		bmi	.L85
 853:Drivers/STM32F1xx_HAL_Driver/Src/stm32f1xx_hal_flash.c ****      __HAL_FLASH_GET_FLAG(FLASH_FLAG_PGERR))
 906              		.loc 1 853 6 discriminator 1 view .LVU280
 907 002a DA69     		ldr	r2, [r3, #28]
 852:Drivers/STM32F1xx_HAL_Driver/Src/stm32f1xx_hal_flash.c ****      __HAL_FLASH_GET_FLAG(FLASH_FLAG_OPTVERR) || 
 908              		.loc 1 852 47 discriminator 1 view .LVU281
 909 002c D207     		lsls	r2, r2, #31
 910 002e 04D4     		bmi	.L85
 854:Drivers/STM32F1xx_HAL_Driver/Src/stm32f1xx_hal_flash.c ****   {
 911              		.loc 1 854 6 view .LVU282
 912 0030 D868     		ldr	r0, [r3, #12]
 853:Drivers/STM32F1xx_HAL_Driver/Src/stm32f1xx_hal_flash.c ****      __HAL_FLASH_GET_FLAG(FLASH_FLAG_PGERR))
 913              		.loc 1 853 47 view .LVU283
 914 0032 10F00400 		ands	r0, r0, #4
 915 0036 00D1     		bne	.L85
 863:Drivers/STM32F1xx_HAL_Driver/Src/stm32f1xx_hal_flash.c **** 
 916              		.loc 1 863 1 view .LVU284
 917 0038 70BD     		pop	{r4, r5, r6, pc}
 918              	.LVL40:
 919              	.L85:
 857:Drivers/STM32F1xx_HAL_Driver/Src/stm32f1xx_hal_flash.c ****     return HAL_ERROR;
 920              		.loc 1 857 5 is_stmt 1 view .LVU285
 921 003a FFF7FEFF 		bl	FLASH_SetErrorCode
 922              	.LVL41:
 858:Drivers/STM32F1xx_HAL_Driver/Src/stm32f1xx_hal_flash.c ****   }
 923              		.loc 1 858 5 view .LVU286
ARM GAS  C:\Users\86184\AppData\Local\Temp\ccGaz80f.s 			page 38


 858:Drivers/STM32F1xx_HAL_Driver/Src/stm32f1xx_hal_flash.c ****   }
 924              		.loc 1 858 12 is_stmt 0 view .LVU287
 925 003e 0120     		movs	r0, #1
 863:Drivers/STM32F1xx_HAL_Driver/Src/stm32f1xx_hal_flash.c **** 
 926              		.loc 1 863 1 view .LVU288
 927 0040 70BD     		pop	{r4, r5, r6, pc}
 928              	.LVL42:
 929              	.L93:
 838:Drivers/STM32F1xx_HAL_Driver/Src/stm32f1xx_hal_flash.c ****       {
 930              		.loc 1 838 7 is_stmt 1 view .LVU289
 838:Drivers/STM32F1xx_HAL_Driver/Src/stm32f1xx_hal_flash.c ****       {
 931              		.loc 1 838 9 is_stmt 0 view .LVU290
 932 0042 24B1     		cbz	r4, .L82
 838:Drivers/STM32F1xx_HAL_Driver/Src/stm32f1xx_hal_flash.c ****       {
 933              		.loc 1 838 31 discriminator 1 view .LVU291
 934 0044 FFF7FEFF 		bl	HAL_GetTick
 935              	.LVL43:
 838:Drivers/STM32F1xx_HAL_Driver/Src/stm32f1xx_hal_flash.c ****       {
 936              		.loc 1 838 44 discriminator 1 view .LVU292
 937 0048 801B     		subs	r0, r0, r6
 838:Drivers/STM32F1xx_HAL_Driver/Src/stm32f1xx_hal_flash.c ****       {
 938              		.loc 1 838 26 discriminator 1 view .LVU293
 939 004a A042     		cmp	r0, r4
 940 004c E1D9     		bls	.L79
 941              	.L82:
 840:Drivers/STM32F1xx_HAL_Driver/Src/stm32f1xx_hal_flash.c ****       }
 942              		.loc 1 840 16 view .LVU294
 943 004e 0320     		movs	r0, #3
 863:Drivers/STM32F1xx_HAL_Driver/Src/stm32f1xx_hal_flash.c **** 
 944              		.loc 1 863 1 view .LVU295
 945 0050 70BD     		pop	{r4, r5, r6, pc}
 946              	.LVL44:
 947              	.L95:
 863:Drivers/STM32F1xx_HAL_Driver/Src/stm32f1xx_hal_flash.c **** 
 948              		.loc 1 863 1 view .LVU296
 949 0052 00BF     		.align	2
 950              	.L94:
 951 0054 00200240 		.word	1073881088
 952              		.cfi_endproc
 953              	.LFE77:
 955              		.section	.text.HAL_FLASH_Program,"ax",%progbits
 956              		.align	1
 957              		.p2align 2,,3
 958              		.global	HAL_FLASH_Program
 959              		.syntax unified
 960              		.thumb
 961              		.thumb_func
 963              	HAL_FLASH_Program:
 964              	.LVL45:
 965              	.LFB65:
 169:Drivers/STM32F1xx_HAL_Driver/Src/stm32f1xx_hal_flash.c ****   HAL_StatusTypeDef status = HAL_ERROR;
 966              		.loc 1 169 1 is_stmt 1 view -0
 967              		.cfi_startproc
 968              		@ args = 0, pretend = 0, frame = 0
 969              		@ frame_needed = 0, uses_anonymous_args = 0
 170:Drivers/STM32F1xx_HAL_Driver/Src/stm32f1xx_hal_flash.c ****   uint8_t index = 0;
 970              		.loc 1 170 3 view .LVU298
ARM GAS  C:\Users\86184\AppData\Local\Temp\ccGaz80f.s 			page 39


 171:Drivers/STM32F1xx_HAL_Driver/Src/stm32f1xx_hal_flash.c ****   uint8_t nbiterations = 0;
 971              		.loc 1 171 3 view .LVU299
 172:Drivers/STM32F1xx_HAL_Driver/Src/stm32f1xx_hal_flash.c ****   
 972              		.loc 1 172 3 view .LVU300
 175:Drivers/STM32F1xx_HAL_Driver/Src/stm32f1xx_hal_flash.c **** 
 973              		.loc 1 175 3 view .LVU301
 175:Drivers/STM32F1xx_HAL_Driver/Src/stm32f1xx_hal_flash.c **** 
 974              		.loc 1 175 3 view .LVU302
 169:Drivers/STM32F1xx_HAL_Driver/Src/stm32f1xx_hal_flash.c ****   HAL_StatusTypeDef status = HAL_ERROR;
 975              		.loc 1 169 1 is_stmt 0 view .LVU303
 976 0000 2DE9F84F 		push	{r3, r4, r5, r6, r7, r8, r9, r10, fp, lr}
 977              	.LCFI6:
 978              		.cfi_def_cfa_offset 40
 979              		.cfi_offset 3, -40
 980              		.cfi_offset 4, -36
 981              		.cfi_offset 5, -32
 982              		.cfi_offset 6, -28
 983              		.cfi_offset 7, -24
 984              		.cfi_offset 8, -20
 985              		.cfi_offset 9, -16
 986              		.cfi_offset 10, -12
 987              		.cfi_offset 11, -8
 988              		.cfi_offset 14, -4
 175:Drivers/STM32F1xx_HAL_Driver/Src/stm32f1xx_hal_flash.c **** 
 989              		.loc 1 175 3 view .LVU304
 990 0004 284E     		ldr	r6, .L107
 991 0006 96F818C0 		ldrb	ip, [r6, #24]	@ zero_extendqisi2
 992 000a BCF1010F 		cmp	ip, #1
 993 000e 48D0     		beq	.L101
 175:Drivers/STM32F1xx_HAL_Driver/Src/stm32f1xx_hal_flash.c **** 
 994              		.loc 1 175 3 is_stmt 1 discriminator 2 view .LVU305
 995 0010 1C46     		mov	r4, r3
 996 0012 0123     		movs	r3, #1
 997 0014 0546     		mov	r5, r0
 186:Drivers/STM32F1xx_HAL_Driver/Src/stm32f1xx_hal_flash.c **** #if defined(FLASH_BANK2_END)
 998              		.loc 1 186 14 is_stmt 0 discriminator 2 view .LVU306
 999 0016 4CF25030 		movw	r0, #50000
 1000              	.LVL46:
 186:Drivers/STM32F1xx_HAL_Driver/Src/stm32f1xx_hal_flash.c **** #if defined(FLASH_BANK2_END)
 1001              		.loc 1 186 14 discriminator 2 view .LVU307
 1002 001a 8A46     		mov	r10, r1
 1003 001c 1746     		mov	r7, r2
 175:Drivers/STM32F1xx_HAL_Driver/Src/stm32f1xx_hal_flash.c **** 
 1004              		.loc 1 175 3 discriminator 2 view .LVU308
 1005 001e 3376     		strb	r3, [r6, #24]
 175:Drivers/STM32F1xx_HAL_Driver/Src/stm32f1xx_hal_flash.c **** 
 1006              		.loc 1 175 3 is_stmt 1 discriminator 2 view .LVU309
 178:Drivers/STM32F1xx_HAL_Driver/Src/stm32f1xx_hal_flash.c ****   assert_param(IS_FLASH_PROGRAM_ADDRESS(Address));
 1007              		.loc 1 178 3 discriminator 2 view .LVU310
 179:Drivers/STM32F1xx_HAL_Driver/Src/stm32f1xx_hal_flash.c **** 
 1008              		.loc 1 179 3 discriminator 2 view .LVU311
 186:Drivers/STM32F1xx_HAL_Driver/Src/stm32f1xx_hal_flash.c **** #if defined(FLASH_BANK2_END)
 1009              		.loc 1 186 5 discriminator 2 view .LVU312
 186:Drivers/STM32F1xx_HAL_Driver/Src/stm32f1xx_hal_flash.c **** #if defined(FLASH_BANK2_END)
 1010              		.loc 1 186 14 is_stmt 0 discriminator 2 view .LVU313
 1011 0020 FFF7FEFF 		bl	FLASH_WaitForLastOperation
 1012              	.LVL47:
ARM GAS  C:\Users\86184\AppData\Local\Temp\ccGaz80f.s 			page 40


 196:Drivers/STM32F1xx_HAL_Driver/Src/stm32f1xx_hal_flash.c ****   {
 1013              		.loc 1 196 3 is_stmt 1 discriminator 2 view .LVU314
 196:Drivers/STM32F1xx_HAL_Driver/Src/stm32f1xx_hal_flash.c ****   {
 1014              		.loc 1 196 5 is_stmt 0 discriminator 2 view .LVU315
 1015 0024 C8BB     		cbnz	r0, .L98
 198:Drivers/STM32F1xx_HAL_Driver/Src/stm32f1xx_hal_flash.c ****     {
 1016              		.loc 1 198 5 is_stmt 1 view .LVU316
 198:Drivers/STM32F1xx_HAL_Driver/Src/stm32f1xx_hal_flash.c ****     {
 1017              		.loc 1 198 7 is_stmt 0 view .LVU317
 1018 0026 012D     		cmp	r5, #1
 1019 0028 03D0     		beq	.L99
 203:Drivers/STM32F1xx_HAL_Driver/Src/stm32f1xx_hal_flash.c ****     {
 1020              		.loc 1 203 10 is_stmt 1 view .LVU318
 206:Drivers/STM32F1xx_HAL_Driver/Src/stm32f1xx_hal_flash.c ****     }
 1021              		.loc 1 206 20 is_stmt 0 view .LVU319
 1022 002a 022D     		cmp	r5, #2
 1023 002c 14BF     		ite	ne
 1024 002e 0425     		movne	r5, #4
 1025              	.LVL48:
 206:Drivers/STM32F1xx_HAL_Driver/Src/stm32f1xx_hal_flash.c ****     }
 1026              		.loc 1 206 20 view .LVU320
 1027 0030 0225     		moveq	r5, #2
 1028              	.L99:
 1029              	.LVL49:
 211:Drivers/STM32F1xx_HAL_Driver/Src/stm32f1xx_hal_flash.c ****     }
 1030              		.loc 1 211 20 view .LVU321
 1031 0032 4FF00009 		mov	r9, #0
 1032              	.LBB18:
 1033              	.LBB19:
 807:Drivers/STM32F1xx_HAL_Driver/Src/stm32f1xx_hal_flash.c **** #if defined(FLASH_BANK2_END)
 1034              		.loc 1 807 5 view .LVU322
 1035 0036 DFF874B0 		ldr	fp, .L107+4
 800:Drivers/STM32F1xx_HAL_Driver/Src/stm32f1xx_hal_flash.c ****   
 1036              		.loc 1 800 20 view .LVU323
 1037 003a C846     		mov	r8, r9
 1038 003c 0AEB4505 		add	r5, r10, r5, lsl #1
 1039 0040 01E0     		b	.L100
 1040              	.LVL50:
 1041              	.L106:
 800:Drivers/STM32F1xx_HAL_Driver/Src/stm32f1xx_hal_flash.c ****   
 1042              		.loc 1 800 20 view .LVU324
 1043              	.LBE19:
 1044              	.LBE18:
 214:Drivers/STM32F1xx_HAL_Driver/Src/stm32f1xx_hal_flash.c ****     {
 1045              		.loc 1 214 28 discriminator 2 view .LVU325
 1046 0042 AA45     		cmp	r10, r5
 1047 0044 29D0     		beq	.L98
 1048              	.LVL51:
 1049              	.L100:
 216:Drivers/STM32F1xx_HAL_Driver/Src/stm32f1xx_hal_flash.c **** 
 1050              		.loc 1 216 7 is_stmt 1 view .LVU326
 216:Drivers/STM32F1xx_HAL_Driver/Src/stm32f1xx_hal_flash.c **** 
 1051              		.loc 1 216 70 is_stmt 0 view .LVU327
 1052 0046 C9F12003 		rsb	r3, r9, #32
 1053              	.LBB25:
 1054              	.LBB20:
 800:Drivers/STM32F1xx_HAL_Driver/Src/stm32f1xx_hal_flash.c ****   
ARM GAS  C:\Users\86184\AppData\Local\Temp\ccGaz80f.s 			page 41


 1055              		.loc 1 800 20 view .LVU328
 1056 004a C6F81C80 		str	r8, [r6, #28]
 1057              	.LBE20:
 1058              	.LBE25:
 216:Drivers/STM32F1xx_HAL_Driver/Src/stm32f1xx_hal_flash.c **** 
 1059              		.loc 1 216 70 view .LVU329
 1060 004e A9F12002 		sub	r2, r9, #32
 1061 0052 27FA09FC 		lsr	ip, r7, r9
 1062 0056 04FA03F3 		lsl	r3, r4, r3
 1063 005a 4CEA030C 		orr	ip, ip, r3
 1064 005e 24FA02F2 		lsr	r2, r4, r2
 1065              	.LBB26:
 1066              	.LBB21:
 807:Drivers/STM32F1xx_HAL_Driver/Src/stm32f1xx_hal_flash.c **** #if defined(FLASH_BANK2_END)
 1067              		.loc 1 807 5 view .LVU330
 1068 0062 DBF81030 		ldr	r3, [fp, #16]
 1069              	.LBE21:
 1070              	.LBE26:
 216:Drivers/STM32F1xx_HAL_Driver/Src/stm32f1xx_hal_flash.c **** 
 1071              		.loc 1 216 70 view .LVU331
 1072 0066 4CEA020C 		orr	ip, ip, r2
 1073              	.LBB27:
 1074              	.LBB22:
 807:Drivers/STM32F1xx_HAL_Driver/Src/stm32f1xx_hal_flash.c **** #if defined(FLASH_BANK2_END)
 1075              		.loc 1 807 5 view .LVU332
 1076 006a 43F00103 		orr	r3, r3, #1
 1077              	.LBE22:
 1078              	.LBE27:
 216:Drivers/STM32F1xx_HAL_Driver/Src/stm32f1xx_hal_flash.c **** 
 1079              		.loc 1 216 7 view .LVU333
 1080 006e 1FFA8CFC 		uxth	ip, ip
 1081              	.LVL52:
 1082              	.LBB28:
 1083              	.LBI18:
 797:Drivers/STM32F1xx_HAL_Driver/Src/stm32f1xx_hal_flash.c **** {
 1084              		.loc 1 797 13 is_stmt 1 view .LVU334
 1085              	.LBB23:
 800:Drivers/STM32F1xx_HAL_Driver/Src/stm32f1xx_hal_flash.c ****   
 1086              		.loc 1 800 3 view .LVU335
 807:Drivers/STM32F1xx_HAL_Driver/Src/stm32f1xx_hal_flash.c **** #if defined(FLASH_BANK2_END)
 1087              		.loc 1 807 5 view .LVU336
 1088 0072 CBF81030 		str	r3, [fp, #16]
 818:Drivers/STM32F1xx_HAL_Driver/Src/stm32f1xx_hal_flash.c **** }
 1089              		.loc 1 818 3 view .LVU337
 1090              	.LBE23:
 1091              	.LBE28:
 223:Drivers/STM32F1xx_HAL_Driver/Src/stm32f1xx_hal_flash.c ****     
 1092              		.loc 1 223 18 is_stmt 0 view .LVU338
 1093 0076 4CF25030 		movw	r0, #50000
 1094              	.LBB29:
 1095              	.LBB24:
 818:Drivers/STM32F1xx_HAL_Driver/Src/stm32f1xx_hal_flash.c **** }
 1096              		.loc 1 818 28 view .LVU339
 1097 007a AAF800C0 		strh	ip, [r10]	@ movhi
 1098              	.LVL53:
 818:Drivers/STM32F1xx_HAL_Driver/Src/stm32f1xx_hal_flash.c **** }
 1099              		.loc 1 818 28 view .LVU340
ARM GAS  C:\Users\86184\AppData\Local\Temp\ccGaz80f.s 			page 42


 1100              	.LBE24:
 1101              	.LBE29:
 223:Drivers/STM32F1xx_HAL_Driver/Src/stm32f1xx_hal_flash.c ****     
 1102              		.loc 1 223 9 is_stmt 1 view .LVU341
 223:Drivers/STM32F1xx_HAL_Driver/Src/stm32f1xx_hal_flash.c ****     
 1103              		.loc 1 223 18 is_stmt 0 view .LVU342
 1104 007e FFF7FEFF 		bl	FLASH_WaitForLastOperation
 1105              	.LVL54:
 214:Drivers/STM32F1xx_HAL_Driver/Src/stm32f1xx_hal_flash.c ****     {
 1106              		.loc 1 214 49 is_stmt 1 view .LVU343
 214:Drivers/STM32F1xx_HAL_Driver/Src/stm32f1xx_hal_flash.c ****     {
 1107              		.loc 1 214 28 view .LVU344
 226:Drivers/STM32F1xx_HAL_Driver/Src/stm32f1xx_hal_flash.c **** #if defined(FLASH_BANK2_END)
 1108              		.loc 1 226 9 view .LVU345
 1109 0082 DBF81030 		ldr	r3, [fp, #16]
 214:Drivers/STM32F1xx_HAL_Driver/Src/stm32f1xx_hal_flash.c ****     {
 1110              		.loc 1 214 28 is_stmt 0 view .LVU346
 1111 0086 0AF1020A 		add	r10, r10, #2
 226:Drivers/STM32F1xx_HAL_Driver/Src/stm32f1xx_hal_flash.c **** #if defined(FLASH_BANK2_END)
 1112              		.loc 1 226 9 view .LVU347
 1113 008a 23F00103 		bic	r3, r3, #1
 214:Drivers/STM32F1xx_HAL_Driver/Src/stm32f1xx_hal_flash.c ****     {
 1114              		.loc 1 214 28 view .LVU348
 1115 008e 09F11009 		add	r9, r9, #16
 1116              	.LVL55:
 226:Drivers/STM32F1xx_HAL_Driver/Src/stm32f1xx_hal_flash.c **** #if defined(FLASH_BANK2_END)
 1117              		.loc 1 226 9 view .LVU349
 1118 0092 CBF81030 		str	r3, [fp, #16]
 239:Drivers/STM32F1xx_HAL_Driver/Src/stm32f1xx_hal_flash.c ****       {
 1119              		.loc 1 239 7 is_stmt 1 view .LVU350
 239:Drivers/STM32F1xx_HAL_Driver/Src/stm32f1xx_hal_flash.c ****       {
 1120              		.loc 1 239 10 is_stmt 0 view .LVU351
 1121 0096 0028     		cmp	r0, #0
 1122 0098 D3D0     		beq	.L106
 1123              	.LVL56:
 1124              	.L98:
 247:Drivers/STM32F1xx_HAL_Driver/Src/stm32f1xx_hal_flash.c **** 
 1125              		.loc 1 247 3 is_stmt 1 view .LVU352
 247:Drivers/STM32F1xx_HAL_Driver/Src/stm32f1xx_hal_flash.c **** 
 1126              		.loc 1 247 3 view .LVU353
 1127 009a 0023     		movs	r3, #0
 1128 009c 3376     		strb	r3, [r6, #24]
 247:Drivers/STM32F1xx_HAL_Driver/Src/stm32f1xx_hal_flash.c **** 
 1129              		.loc 1 247 3 view .LVU354
 249:Drivers/STM32F1xx_HAL_Driver/Src/stm32f1xx_hal_flash.c **** }
 1130              		.loc 1 249 3 view .LVU355
 250:Drivers/STM32F1xx_HAL_Driver/Src/stm32f1xx_hal_flash.c **** 
 1131              		.loc 1 250 1 is_stmt 0 view .LVU356
 1132 009e BDE8F88F 		pop	{r3, r4, r5, r6, r7, r8, r9, r10, fp, pc}
 1133              	.LVL57:
 1134              	.L101:
 175:Drivers/STM32F1xx_HAL_Driver/Src/stm32f1xx_hal_flash.c **** 
 1135              		.loc 1 175 3 view .LVU357
 1136 00a2 0220     		movs	r0, #2
 1137              	.LVL58:
 250:Drivers/STM32F1xx_HAL_Driver/Src/stm32f1xx_hal_flash.c **** 
 1138              		.loc 1 250 1 view .LVU358
ARM GAS  C:\Users\86184\AppData\Local\Temp\ccGaz80f.s 			page 43


 1139 00a4 BDE8F88F 		pop	{r3, r4, r5, r6, r7, r8, r9, r10, fp, pc}
 1140              	.L108:
 1141              		.align	2
 1142              	.L107:
 1143 00a8 00000000 		.word	pFlash
 1144 00ac 00200240 		.word	1073881088
 1145              		.cfi_endproc
 1146              	.LFE65:
 1148              		.global	pFlash
 1149              		.section	.bss.pFlash,"aw",%nobits
 1150              		.align	3
 1153              	pFlash:
 1154 0000 00000000 		.space	32
 1154      00000000 
 1154      00000000 
 1154      00000000 
 1154      00000000 
 1155              		.text
 1156              	.Letext0:
 1157              		.file 2 "d:\\appdev\\vsarm\\armcc\\arm-none-eabi\\include\\machine\\_default_types.h"
 1158              		.file 3 "d:\\appdev\\vsarm\\armcc\\arm-none-eabi\\include\\sys\\_stdint.h"
 1159              		.file 4 "Drivers/CMSIS/Device/ST/STM32F1xx/Include/stm32f103xe.h"
 1160              		.file 5 "Drivers/CMSIS/Device/ST/STM32F1xx/Include/stm32f1xx.h"
 1161              		.file 6 "Drivers/STM32F1xx_HAL_Driver/Inc/stm32f1xx_hal_def.h"
 1162              		.file 7 "Drivers/STM32F1xx_HAL_Driver/Inc/stm32f1xx_hal_flash.h"
 1163              		.file 8 "Drivers/STM32F1xx_HAL_Driver/Inc/stm32f1xx_hal.h"
 1164              		.file 9 "Drivers/STM32F1xx_HAL_Driver/Inc/stm32f1xx_hal_cortex.h"
ARM GAS  C:\Users\86184\AppData\Local\Temp\ccGaz80f.s 			page 44


DEFINED SYMBOLS
                            *ABS*:00000000 stm32f1xx_hal_flash.c
C:\Users\86184\AppData\Local\Temp\ccGaz80f.s:19     .text.FLASH_SetErrorCode:00000000 $t
C:\Users\86184\AppData\Local\Temp\ccGaz80f.s:25     .text.FLASH_SetErrorCode:00000000 FLASH_SetErrorCode
C:\Users\86184\AppData\Local\Temp\ccGaz80f.s:107    .text.FLASH_SetErrorCode:0000004c $d
C:\Users\86184\AppData\Local\Temp\ccGaz80f.s:1153   .bss.pFlash:00000000 pFlash
C:\Users\86184\AppData\Local\Temp\ccGaz80f.s:113    .text.HAL_FLASH_Program_IT:00000000 $t
C:\Users\86184\AppData\Local\Temp\ccGaz80f.s:120    .text.HAL_FLASH_Program_IT:00000000 HAL_FLASH_Program_IT
C:\Users\86184\AppData\Local\Temp\ccGaz80f.s:266    .text.HAL_FLASH_Program_IT:00000060 $d
C:\Users\86184\AppData\Local\Temp\ccGaz80f.s:272    .text.HAL_FLASH_EndOfOperationCallback:00000000 $t
C:\Users\86184\AppData\Local\Temp\ccGaz80f.s:279    .text.HAL_FLASH_EndOfOperationCallback:00000000 HAL_FLASH_EndOfOperationCallback
C:\Users\86184\AppData\Local\Temp\ccGaz80f.s:294    .text.HAL_FLASH_OperationErrorCallback:00000000 $t
C:\Users\86184\AppData\Local\Temp\ccGaz80f.s:301    .text.HAL_FLASH_OperationErrorCallback:00000000 HAL_FLASH_OperationErrorCallback
C:\Users\86184\AppData\Local\Temp\ccGaz80f.s:313    .text.HAL_FLASH_IRQHandler:00000000 $t
C:\Users\86184\AppData\Local\Temp\ccGaz80f.s:320    .text.HAL_FLASH_IRQHandler:00000000 HAL_FLASH_IRQHandler
C:\Users\86184\AppData\Local\Temp\ccGaz80f.s:620    .text.HAL_FLASH_IRQHandler:0000011c $d
C:\Users\86184\AppData\Local\Temp\ccGaz80f.s:626    .text.HAL_FLASH_Unlock:00000000 $t
C:\Users\86184\AppData\Local\Temp\ccGaz80f.s:633    .text.HAL_FLASH_Unlock:00000000 HAL_FLASH_Unlock
C:\Users\86184\AppData\Local\Temp\ccGaz80f.s:670    .text.HAL_FLASH_Unlock:0000001c $d
C:\Users\86184\AppData\Local\Temp\ccGaz80f.s:677    .text.HAL_FLASH_Lock:00000000 $t
C:\Users\86184\AppData\Local\Temp\ccGaz80f.s:684    .text.HAL_FLASH_Lock:00000000 HAL_FLASH_Lock
C:\Users\86184\AppData\Local\Temp\ccGaz80f.s:705    .text.HAL_FLASH_Lock:00000010 $d
C:\Users\86184\AppData\Local\Temp\ccGaz80f.s:710    .text.HAL_FLASH_OB_Unlock:00000000 $t
C:\Users\86184\AppData\Local\Temp\ccGaz80f.s:717    .text.HAL_FLASH_OB_Unlock:00000000 HAL_FLASH_OB_Unlock
C:\Users\86184\AppData\Local\Temp\ccGaz80f.s:750    .text.HAL_FLASH_OB_Unlock:00000018 $d
C:\Users\86184\AppData\Local\Temp\ccGaz80f.s:757    .text.HAL_FLASH_OB_Lock:00000000 $t
C:\Users\86184\AppData\Local\Temp\ccGaz80f.s:764    .text.HAL_FLASH_OB_Lock:00000000 HAL_FLASH_OB_Lock
C:\Users\86184\AppData\Local\Temp\ccGaz80f.s:785    .text.HAL_FLASH_OB_Lock:00000010 $d
C:\Users\86184\AppData\Local\Temp\ccGaz80f.s:790    .text.HAL_FLASH_OB_Launch:00000000 $t
C:\Users\86184\AppData\Local\Temp\ccGaz80f.s:797    .text.HAL_FLASH_OB_Launch:00000000 HAL_FLASH_OB_Launch
C:\Users\86184\AppData\Local\Temp\ccGaz80f.s:811    .text.HAL_FLASH_GetError:00000000 $t
C:\Users\86184\AppData\Local\Temp\ccGaz80f.s:818    .text.HAL_FLASH_GetError:00000000 HAL_FLASH_GetError
C:\Users\86184\AppData\Local\Temp\ccGaz80f.s:834    .text.HAL_FLASH_GetError:00000008 $d
C:\Users\86184\AppData\Local\Temp\ccGaz80f.s:839    .text.FLASH_WaitForLastOperation:00000000 $t
C:\Users\86184\AppData\Local\Temp\ccGaz80f.s:846    .text.FLASH_WaitForLastOperation:00000000 FLASH_WaitForLastOperation
C:\Users\86184\AppData\Local\Temp\ccGaz80f.s:951    .text.FLASH_WaitForLastOperation:00000054 $d
C:\Users\86184\AppData\Local\Temp\ccGaz80f.s:956    .text.HAL_FLASH_Program:00000000 $t
C:\Users\86184\AppData\Local\Temp\ccGaz80f.s:963    .text.HAL_FLASH_Program:00000000 HAL_FLASH_Program
C:\Users\86184\AppData\Local\Temp\ccGaz80f.s:1143   .text.HAL_FLASH_Program:000000a8 $d
C:\Users\86184\AppData\Local\Temp\ccGaz80f.s:1150   .bss.pFlash:00000000 $d

UNDEFINED SYMBOLS
FLASH_PageErase
HAL_NVIC_SystemReset
HAL_GetTick
